
obj/user-ucore/bin/syz-executor：     文件格式 elf64-x86-64
体系结构：i386:x86-64， 标志 0x00000112：
EXEC_P, HAS_SYMS, D_PAGED
起始地址 0x0000000010003144


Disassembly of section .text:

0000000010000000 <doexit>:
    10000000:	55                   	push   %rbp
    10000001:	48 89 e5             	mov    %rsp,%rbp
    10000004:	48 83 ec 20          	sub    $0x20,%rsp
    10000008:	89 7d ec             	mov    %edi,-0x14(%rbp)
    1000000b:	8b 45 ec             	mov    -0x14(%rbp),%eax
    1000000e:	89 c6                	mov    %eax,%esi
    10000010:	bf 01 00 00 00       	mov    $0x1,%edi
    10000015:	b8 00 00 00 00       	mov    $0x0,%eax
    1000001a:	e8 9b 60 00 00       	callq  100060ba <syscall>
    1000001f:	c7 45 fc 00 00 00 00 	movl   $0x0,-0x4(%rbp)
    10000026:	8b 45 fc             	mov    -0x4(%rbp),%eax
    10000029:	83 c0 01             	add    $0x1,%eax
    1000002c:	89 45 fc             	mov    %eax,-0x4(%rbp)
    1000002f:	eb f5                	jmp    10000026 <doexit+0x26>

0000000010000031 <fail>:
    10000031:	55                   	push   %rbp
    10000032:	48 89 e5             	mov    %rsp,%rbp
    10000035:	48 81 ec e0 00 00 00 	sub    $0xe0,%rsp
    1000003c:	48 89 bd 28 ff ff ff 	mov    %rdi,-0xd8(%rbp)
    10000043:	48 89 b5 58 ff ff ff 	mov    %rsi,-0xa8(%rbp)
    1000004a:	48 89 95 60 ff ff ff 	mov    %rdx,-0xa0(%rbp)
    10000051:	48 89 8d 68 ff ff ff 	mov    %rcx,-0x98(%rbp)
    10000058:	4c 89 85 70 ff ff ff 	mov    %r8,-0x90(%rbp)
    1000005f:	4c 89 8d 78 ff ff ff 	mov    %r9,-0x88(%rbp)
    10000066:	84 c0                	test   %al,%al
    10000068:	74 20                	je     1000008a <fail+0x59>
    1000006a:	0f 29 45 80          	movaps %xmm0,-0x80(%rbp)
    1000006e:	0f 29 4d 90          	movaps %xmm1,-0x70(%rbp)
    10000072:	0f 29 55 a0          	movaps %xmm2,-0x60(%rbp)
    10000076:	0f 29 5d b0          	movaps %xmm3,-0x50(%rbp)
    1000007a:	0f 29 65 c0          	movaps %xmm4,-0x40(%rbp)
    1000007e:	0f 29 6d d0          	movaps %xmm5,-0x30(%rbp)
    10000082:	0f 29 75 e0          	movaps %xmm6,-0x20(%rbp)
    10000086:	0f 29 7d f0          	movaps %xmm7,-0x10(%rbp)
    1000008a:	8b 05 48 00 01 00    	mov    0x10048(%rip),%eax        # 100100d8 <errno>
    10000090:	89 85 4c ff ff ff    	mov    %eax,-0xb4(%rbp)
    10000096:	c7 85 30 ff ff ff 08 	movl   $0x8,-0xd0(%rbp)
    1000009d:	00 00 00 
    100000a0:	c7 85 34 ff ff ff 30 	movl   $0x30,-0xcc(%rbp)
    100000a7:	00 00 00 
    100000aa:	48 8d 45 10          	lea    0x10(%rbp),%rax
    100000ae:	48 89 85 38 ff ff ff 	mov    %rax,-0xc8(%rbp)
    100000b5:	48 8d 85 50 ff ff ff 	lea    -0xb0(%rbp),%rax
    100000bc:	48 89 85 40 ff ff ff 	mov    %rax,-0xc0(%rbp)
    100000c3:	48 8d 95 30 ff ff ff 	lea    -0xd0(%rbp),%rdx
    100000ca:	48 8b 85 28 ff ff ff 	mov    -0xd8(%rbp),%rax
    100000d1:	48 89 c6             	mov    %rax,%rsi
    100000d4:	bf 02 00 00 00       	mov    $0x2,%edi
    100000d9:	e8 38 3c 00 00       	callq  10003d16 <vfprintf>
    100000de:	8b 85 4c ff ff ff    	mov    -0xb4(%rbp),%eax
    100000e4:	89 c2                	mov    %eax,%edx
    100000e6:	be b4 63 00 10       	mov    $0x100063b4,%esi
    100000eb:	bf 02 00 00 00       	mov    $0x2,%edi
    100000f0:	b8 00 00 00 00       	mov    $0x0,%eax
    100000f5:	e8 59 3c 00 00       	callq  10003d53 <fprintf>
    100000fa:	b8 43 00 00 00       	mov    $0x43,%eax
    100000ff:	89 c7                	mov    %eax,%edi
    10000101:	e8 fa fe ff ff       	callq  10000000 <doexit>

0000000010000106 <error>:
    10000106:	55                   	push   %rbp
    10000107:	48 89 e5             	mov    %rsp,%rbp
    1000010a:	48 81 ec e0 00 00 00 	sub    $0xe0,%rsp
    10000111:	48 89 bd 28 ff ff ff 	mov    %rdi,-0xd8(%rbp)
    10000118:	48 89 b5 58 ff ff ff 	mov    %rsi,-0xa8(%rbp)
    1000011f:	48 89 95 60 ff ff ff 	mov    %rdx,-0xa0(%rbp)
    10000126:	48 89 8d 68 ff ff ff 	mov    %rcx,-0x98(%rbp)
    1000012d:	4c 89 85 70 ff ff ff 	mov    %r8,-0x90(%rbp)
    10000134:	4c 89 8d 78 ff ff ff 	mov    %r9,-0x88(%rbp)
    1000013b:	84 c0                	test   %al,%al
    1000013d:	74 20                	je     1000015f <error+0x59>
    1000013f:	0f 29 45 80          	movaps %xmm0,-0x80(%rbp)
    10000143:	0f 29 4d 90          	movaps %xmm1,-0x70(%rbp)
    10000147:	0f 29 55 a0          	movaps %xmm2,-0x60(%rbp)
    1000014b:	0f 29 5d b0          	movaps %xmm3,-0x50(%rbp)
    1000014f:	0f 29 65 c0          	movaps %xmm4,-0x40(%rbp)
    10000153:	0f 29 6d d0          	movaps %xmm5,-0x30(%rbp)
    10000157:	0f 29 75 e0          	movaps %xmm6,-0x20(%rbp)
    1000015b:	0f 29 7d f0          	movaps %xmm7,-0x10(%rbp)
    1000015f:	c7 85 38 ff ff ff 08 	movl   $0x8,-0xc8(%rbp)
    10000166:	00 00 00 
    10000169:	c7 85 3c ff ff ff 30 	movl   $0x30,-0xc4(%rbp)
    10000170:	00 00 00 
    10000173:	48 8d 45 10          	lea    0x10(%rbp),%rax
    10000177:	48 89 85 40 ff ff ff 	mov    %rax,-0xc0(%rbp)
    1000017e:	48 8d 85 50 ff ff ff 	lea    -0xb0(%rbp),%rax
    10000185:	48 89 85 48 ff ff ff 	mov    %rax,-0xb8(%rbp)
    1000018c:	48 8d 95 38 ff ff ff 	lea    -0xc8(%rbp),%rdx
    10000193:	48 8b 85 28 ff ff ff 	mov    -0xd8(%rbp),%rax
    1000019a:	48 89 c6             	mov    %rax,%rsi
    1000019d:	bf 02 00 00 00       	mov    $0x2,%edi
    100001a2:	e8 6f 3b 00 00       	callq  10003d16 <vfprintf>
    100001a7:	be c1 63 00 10       	mov    $0x100063c1,%esi
    100001ac:	bf 02 00 00 00       	mov    $0x2,%edi
    100001b1:	b8 00 00 00 00       	mov    $0x0,%eax
    100001b6:	e8 98 3b 00 00       	callq  10003d53 <fprintf>
    100001bb:	b8 44 00 00 00       	mov    $0x44,%eax
    100001c0:	89 c7                	mov    %eax,%edi
    100001c2:	e8 39 fe ff ff       	callq  10000000 <doexit>

00000000100001c7 <exitf>:
    100001c7:	55                   	push   %rbp
    100001c8:	48 89 e5             	mov    %rsp,%rbp
    100001cb:	48 81 ec e0 00 00 00 	sub    $0xe0,%rsp
    100001d2:	48 89 bd 28 ff ff ff 	mov    %rdi,-0xd8(%rbp)
    100001d9:	48 89 b5 58 ff ff ff 	mov    %rsi,-0xa8(%rbp)
    100001e0:	48 89 95 60 ff ff ff 	mov    %rdx,-0xa0(%rbp)
    100001e7:	48 89 8d 68 ff ff ff 	mov    %rcx,-0x98(%rbp)
    100001ee:	4c 89 85 70 ff ff ff 	mov    %r8,-0x90(%rbp)
    100001f5:	4c 89 8d 78 ff ff ff 	mov    %r9,-0x88(%rbp)
    100001fc:	84 c0                	test   %al,%al
    100001fe:	74 20                	je     10000220 <exitf+0x59>
    10000200:	0f 29 45 80          	movaps %xmm0,-0x80(%rbp)
    10000204:	0f 29 4d 90          	movaps %xmm1,-0x70(%rbp)
    10000208:	0f 29 55 a0          	movaps %xmm2,-0x60(%rbp)
    1000020c:	0f 29 5d b0          	movaps %xmm3,-0x50(%rbp)
    10000210:	0f 29 65 c0          	movaps %xmm4,-0x40(%rbp)
    10000214:	0f 29 6d d0          	movaps %xmm5,-0x30(%rbp)
    10000218:	0f 29 75 e0          	movaps %xmm6,-0x20(%rbp)
    1000021c:	0f 29 7d f0          	movaps %xmm7,-0x10(%rbp)
    10000220:	8b 05 b2 fe 00 00    	mov    0xfeb2(%rip),%eax        # 100100d8 <errno>
    10000226:	89 85 4c ff ff ff    	mov    %eax,-0xb4(%rbp)
    1000022c:	c7 85 30 ff ff ff 08 	movl   $0x8,-0xd0(%rbp)
    10000233:	00 00 00 
    10000236:	c7 85 34 ff ff ff 30 	movl   $0x30,-0xcc(%rbp)
    1000023d:	00 00 00 
    10000240:	48 8d 45 10          	lea    0x10(%rbp),%rax
    10000244:	48 89 85 38 ff ff ff 	mov    %rax,-0xc8(%rbp)
    1000024b:	48 8d 85 50 ff ff ff 	lea    -0xb0(%rbp),%rax
    10000252:	48 89 85 40 ff ff ff 	mov    %rax,-0xc0(%rbp)
    10000259:	48 8d 95 30 ff ff ff 	lea    -0xd0(%rbp),%rdx
    10000260:	48 8b 85 28 ff ff ff 	mov    -0xd8(%rbp),%rax
    10000267:	48 89 c6             	mov    %rax,%rsi
    1000026a:	bf 02 00 00 00       	mov    $0x2,%edi
    1000026f:	e8 a2 3a 00 00       	callq  10003d16 <vfprintf>
    10000274:	8b 85 4c ff ff ff    	mov    -0xb4(%rbp),%eax
    1000027a:	89 c2                	mov    %eax,%edx
    1000027c:	be b4 63 00 10       	mov    $0x100063b4,%esi
    10000281:	bf 02 00 00 00       	mov    $0x2,%edi
    10000286:	b8 00 00 00 00       	mov    $0x0,%eax
    1000028b:	e8 c3 3a 00 00       	callq  10003d53 <fprintf>
    10000290:	b8 45 00 00 00       	mov    $0x45,%eax
    10000295:	89 c7                	mov    %eax,%edi
    10000297:	e8 64 fd ff ff       	callq  10000000 <doexit>

000000001000029c <debug>:
    1000029c:	55                   	push   %rbp
    1000029d:	48 89 e5             	mov    %rsp,%rbp
    100002a0:	48 81 ec e0 00 00 00 	sub    $0xe0,%rsp
    100002a7:	48 89 bd 28 ff ff ff 	mov    %rdi,-0xd8(%rbp)
    100002ae:	48 89 b5 58 ff ff ff 	mov    %rsi,-0xa8(%rbp)
    100002b5:	48 89 95 60 ff ff ff 	mov    %rdx,-0xa0(%rbp)
    100002bc:	48 89 8d 68 ff ff ff 	mov    %rcx,-0x98(%rbp)
    100002c3:	4c 89 85 70 ff ff ff 	mov    %r8,-0x90(%rbp)
    100002ca:	4c 89 8d 78 ff ff ff 	mov    %r9,-0x88(%rbp)
    100002d1:	84 c0                	test   %al,%al
    100002d3:	74 20                	je     100002f5 <debug+0x59>
    100002d5:	0f 29 45 80          	movaps %xmm0,-0x80(%rbp)
    100002d9:	0f 29 4d 90          	movaps %xmm1,-0x70(%rbp)
    100002dd:	0f 29 55 a0          	movaps %xmm2,-0x60(%rbp)
    100002e1:	0f 29 5d b0          	movaps %xmm3,-0x50(%rbp)
    100002e5:	0f 29 65 c0          	movaps %xmm4,-0x40(%rbp)
    100002e9:	0f 29 6d d0          	movaps %xmm5,-0x30(%rbp)
    100002ed:	0f 29 75 e0          	movaps %xmm6,-0x20(%rbp)
    100002f1:	0f 29 7d f0          	movaps %xmm7,-0x10(%rbp)
    100002f5:	8b 05 05 fd 00 00    	mov    0xfd05(%rip),%eax        # 10010000 <flag_debug>
    100002fb:	85 c0                	test   %eax,%eax
    100002fd:	0f 84 8a 00 00 00    	je     1000038d <debug+0xf1>
    10000303:	48 8b 05 fe fc 01 00 	mov    0x1fcfe(%rip),%rax        # 10020008 <debug_mutex>
    1000030a:	48 89 c7             	mov    %rax,%rdi
    1000030d:	e8 8d 47 00 00       	callq  10004a9f <sem_wait>
    10000312:	e8 c5 46 00 00       	callq  100049dc <getpid>
    10000317:	89 05 f7 fc 01 00    	mov    %eax,0x1fcf7(%rip)        # 10020014 <pid>
    1000031d:	c7 85 38 ff ff ff 08 	movl   $0x8,-0xc8(%rbp)
    10000324:	00 00 00 
    10000327:	c7 85 3c ff ff ff 30 	movl   $0x30,-0xc4(%rbp)
    1000032e:	00 00 00 
    10000331:	48 8d 45 10          	lea    0x10(%rbp),%rax
    10000335:	48 89 85 40 ff ff ff 	mov    %rax,-0xc0(%rbp)
    1000033c:	48 8d 85 50 ff ff ff 	lea    -0xb0(%rbp),%rax
    10000343:	48 89 85 48 ff ff ff 	mov    %rax,-0xb8(%rbp)
    1000034a:	8b 05 c4 fc 01 00    	mov    0x1fcc4(%rip),%eax        # 10020014 <pid>
    10000350:	89 c6                	mov    %eax,%esi
    10000352:	bf c8 63 00 10       	mov    $0x100063c8,%edi
    10000357:	b8 00 00 00 00       	mov    $0x0,%eax
    1000035c:	e8 77 38 00 00       	callq  10003bd8 <cprintf>
    10000361:	48 8d 95 38 ff ff ff 	lea    -0xc8(%rbp),%rdx
    10000368:	48 8b 85 28 ff ff ff 	mov    -0xd8(%rbp),%rax
    1000036f:	48 89 c6             	mov    %rax,%rsi
    10000372:	bf 02 00 00 00       	mov    $0x2,%edi
    10000377:	e8 9a 39 00 00       	callq  10003d16 <vfprintf>
    1000037c:	48 8b 05 85 fc 01 00 	mov    0x1fc85(%rip),%rax        # 10020008 <debug_mutex>
    10000383:	48 89 c7             	mov    %rax,%rdi
    10000386:	e8 fa 46 00 00       	callq  10004a85 <sem_post>
    1000038b:	eb 01                	jmp    1000038e <debug+0xf2>
    1000038d:	90                   	nop
    1000038e:	c9                   	leaveq 
    1000038f:	c3                   	retq   

0000000010000390 <csum_inet_init>:
    10000390:	55                   	push   %rbp
    10000391:	48 89 e5             	mov    %rsp,%rbp
    10000394:	48 89 7d f8          	mov    %rdi,-0x8(%rbp)
    10000398:	48 8b 45 f8          	mov    -0x8(%rbp),%rax
    1000039c:	c7 00 00 00 00 00    	movl   $0x0,(%rax)
    100003a2:	90                   	nop
    100003a3:	5d                   	pop    %rbp
    100003a4:	c3                   	retq   

00000000100003a5 <csum_inet_update>:
    100003a5:	55                   	push   %rbp
    100003a6:	48 89 e5             	mov    %rsp,%rbp
    100003a9:	48 89 7d e8          	mov    %rdi,-0x18(%rbp)
    100003ad:	48 89 75 e0          	mov    %rsi,-0x20(%rbp)
    100003b1:	48 89 55 d8          	mov    %rdx,-0x28(%rbp)
    100003b5:	48 83 7d d8 00       	cmpq   $0x0,-0x28(%rbp)
    100003ba:	0f 84 96 00 00 00    	je     10000456 <csum_inet_update+0xb1>
    100003c0:	48 c7 45 f8 00 00 00 	movq   $0x0,-0x8(%rbp)
    100003c7:	00 
    100003c8:	eb 24                	jmp    100003ee <csum_inet_update+0x49>
    100003ca:	48 8b 45 e8          	mov    -0x18(%rbp),%rax
    100003ce:	8b 10                	mov    (%rax),%edx
    100003d0:	48 8b 4d e0          	mov    -0x20(%rbp),%rcx
    100003d4:	48 8b 45 f8          	mov    -0x8(%rbp),%rax
    100003d8:	48 01 c8             	add    %rcx,%rax
    100003db:	0f b7 00             	movzwl (%rax),%eax
    100003de:	0f b7 c0             	movzwl %ax,%eax
    100003e1:	01 c2                	add    %eax,%edx
    100003e3:	48 8b 45 e8          	mov    -0x18(%rbp),%rax
    100003e7:	89 10                	mov    %edx,(%rax)
    100003e9:	48 83 45 f8 02       	addq   $0x2,-0x8(%rbp)
    100003ee:	48 8b 45 d8          	mov    -0x28(%rbp),%rax
    100003f2:	48 83 e8 01          	sub    $0x1,%rax
    100003f6:	48 39 45 f8          	cmp    %rax,-0x8(%rbp)
    100003fa:	72 ce                	jb     100003ca <csum_inet_update+0x25>
    100003fc:	48 8b 45 d8          	mov    -0x28(%rbp),%rax
    10000400:	83 e0 01             	and    $0x1,%eax
    10000403:	48 85 c0             	test   %rax,%rax
    10000406:	74 3f                	je     10000447 <csum_inet_update+0xa2>
    10000408:	48 8b 45 e8          	mov    -0x18(%rbp),%rax
    1000040c:	8b 10                	mov    (%rax),%edx
    1000040e:	48 8b 45 d8          	mov    -0x28(%rbp),%rax
    10000412:	48 8d 48 ff          	lea    -0x1(%rax),%rcx
    10000416:	48 8b 45 e0          	mov    -0x20(%rbp),%rax
    1000041a:	48 01 c8             	add    %rcx,%rax
    1000041d:	0f b6 00             	movzbl (%rax),%eax
    10000420:	0f b6 c0             	movzbl %al,%eax
    10000423:	01 c2                	add    %eax,%edx
    10000425:	48 8b 45 e8          	mov    -0x18(%rbp),%rax
    10000429:	89 10                	mov    %edx,(%rax)
    1000042b:	eb 1a                	jmp    10000447 <csum_inet_update+0xa2>
    1000042d:	48 8b 45 e8          	mov    -0x18(%rbp),%rax
    10000431:	8b 00                	mov    (%rax),%eax
    10000433:	0f b7 d0             	movzwl %ax,%edx
    10000436:	48 8b 45 e8          	mov    -0x18(%rbp),%rax
    1000043a:	8b 00                	mov    (%rax),%eax
    1000043c:	c1 e8 10             	shr    $0x10,%eax
    1000043f:	01 c2                	add    %eax,%edx
    10000441:	48 8b 45 e8          	mov    -0x18(%rbp),%rax
    10000445:	89 10                	mov    %edx,(%rax)
    10000447:	48 8b 45 e8          	mov    -0x18(%rbp),%rax
    1000044b:	8b 00                	mov    (%rax),%eax
    1000044d:	3d ff ff 00 00       	cmp    $0xffff,%eax
    10000452:	77 d9                	ja     1000042d <csum_inet_update+0x88>
    10000454:	eb 01                	jmp    10000457 <csum_inet_update+0xb2>
    10000456:	90                   	nop
    10000457:	5d                   	pop    %rbp
    10000458:	c3                   	retq   

0000000010000459 <csum_inet_digest>:
    10000459:	55                   	push   %rbp
    1000045a:	48 89 e5             	mov    %rsp,%rbp
    1000045d:	48 89 7d f8          	mov    %rdi,-0x8(%rbp)
    10000461:	48 8b 45 f8          	mov    -0x8(%rbp),%rax
    10000465:	8b 00                	mov    (%rax),%eax
    10000467:	f7 d0                	not    %eax
    10000469:	5d                   	pop    %rbp
    1000046a:	c3                   	retq   

000000001000046b <install_segv_handler>:
    1000046b:	55                   	push   %rbp
    1000046c:	48 89 e5             	mov    %rsp,%rbp
    1000046f:	90                   	nop
    10000470:	5d                   	pop    %rbp
    10000471:	c3                   	retq   

0000000010000472 <current_time_ms>:
    10000472:	55                   	push   %rbp
    10000473:	48 89 e5             	mov    %rsp,%rbp
    10000476:	e8 56 45 00 00       	callq  100049d1 <gettime_msec>
    1000047b:	89 c0                	mov    %eax,%eax
    1000047d:	5d                   	pop    %rbp
    1000047e:	c3                   	retq   

000000001000047f <sleep_ms>:
    1000047f:	55                   	push   %rbp
    10000480:	48 89 e5             	mov    %rsp,%rbp
    10000483:	48 83 ec 10          	sub    $0x10,%rsp
    10000487:	48 89 7d f8          	mov    %rdi,-0x8(%rbp)
    1000048b:	48 8b 45 f8          	mov    -0x8(%rbp),%rax
    1000048f:	89 c7                	mov    %eax,%edi
    10000491:	e8 0d 45 00 00       	callq  100049a3 <sleep>
    10000496:	90                   	nop
    10000497:	c9                   	leaveq 
    10000498:	c3                   	retq   

0000000010000499 <use_temporary_dir>:
    10000499:	55                   	push   %rbp
    1000049a:	48 89 e5             	mov    %rsp,%rbp
    1000049d:	48 83 ec 20          	sub    $0x20,%rsp
    100004a1:	48 b8 2e 2f 73 79 7a 	movabs $0x6c616b7a79732f2e,%rax
    100004a8:	6b 61 6c 
    100004ab:	48 ba 6c 65 72 2e 6d 	movabs $0x6d6f616d2e72656c,%rdx
    100004b2:	61 6f 6d 
    100004b5:	48 89 45 e0          	mov    %rax,-0x20(%rbp)
    100004b9:	48 89 55 e8          	mov    %rdx,-0x18(%rbp)
    100004bd:	66 c7 45 f0 61 6f    	movw   $0x6f61,-0x10(%rbp)
    100004c3:	c6 45 f2 00          	movb   $0x0,-0xe(%rbp)
    100004c7:	48 8d 45 e0          	lea    -0x20(%rbp),%rax
    100004cb:	48 89 c7             	mov    %rax,%rdi
    100004ce:	e8 ca 2d 00 00       	callq  1000329d <mkdir>
    100004d3:	89 45 fc             	mov    %eax,-0x4(%rbp)
    100004d6:	83 7d fc ff          	cmpl   $0xffffffff,-0x4(%rbp)
    100004da:	75 0f                	jne    100004eb <use_temporary_dir+0x52>
    100004dc:	bf e9 63 00 10       	mov    $0x100063e9,%edi
    100004e1:	b8 00 00 00 00       	mov    $0x0,%eax
    100004e6:	e8 46 fb ff ff       	callq  10000031 <fail>
    100004eb:	48 8d 45 e0          	lea    -0x20(%rbp),%rax
    100004ef:	48 89 c7             	mov    %rax,%rdi
    100004f2:	e8 67 2d 00 00       	callq  1000325e <chdir>
    100004f7:	85 c0                	test   %eax,%eax
    100004f9:	74 0f                	je     1000050a <use_temporary_dir+0x71>
    100004fb:	bf fb 63 00 10       	mov    $0x100063fb,%edi
    10000500:	b8 00 00 00 00       	mov    $0x0,%eax
    10000505:	e8 27 fb ff ff       	callq  10000031 <fail>
    1000050a:	90                   	nop
    1000050b:	c9                   	leaveq 
    1000050c:	c3                   	retq   

000000001000050d <vsnprintf_check>:
    1000050d:	55                   	push   %rbp
    1000050e:	48 89 e5             	mov    %rsp,%rbp
    10000511:	48 83 ec 30          	sub    $0x30,%rsp
    10000515:	48 89 7d e8          	mov    %rdi,-0x18(%rbp)
    10000519:	48 89 75 e0          	mov    %rsi,-0x20(%rbp)
    1000051d:	48 89 55 d8          	mov    %rdx,-0x28(%rbp)
    10000521:	48 89 4d d0          	mov    %rcx,-0x30(%rbp)
    10000525:	48 8b 4d d0          	mov    -0x30(%rbp),%rcx
    10000529:	48 8b 55 d8          	mov    -0x28(%rbp),%rdx
    1000052d:	48 8b 75 e0          	mov    -0x20(%rbp),%rsi
    10000531:	48 8b 45 e8          	mov    -0x18(%rbp),%rax
    10000535:	48 89 c7             	mov    %rax,%rdi
    10000538:	e8 db 54 00 00       	callq  10005a18 <vsnprintf>
    1000053d:	89 45 fc             	mov    %eax,-0x4(%rbp)
    10000540:	83 7d fc 00          	cmpl   $0x0,-0x4(%rbp)
    10000544:	79 0f                	jns    10000555 <vsnprintf_check+0x48>
    10000546:	bf 0b 64 00 10       	mov    $0x1000640b,%edi
    1000054b:	b8 00 00 00 00       	mov    $0x0,%eax
    10000550:	e8 dc fa ff ff       	callq  10000031 <fail>
    10000555:	8b 45 fc             	mov    -0x4(%rbp),%eax
    10000558:	48 98                	cltq   
    1000055a:	48 39 45 e0          	cmp    %rax,-0x20(%rbp)
    1000055e:	77 16                	ja     10000576 <vsnprintf_check+0x69>
    10000560:	48 8b 45 e8          	mov    -0x18(%rbp),%rax
    10000564:	48 89 c6             	mov    %rax,%rsi
    10000567:	bf 20 64 00 10       	mov    $0x10006420,%edi
    1000056c:	b8 00 00 00 00       	mov    $0x0,%eax
    10000571:	e8 bb fa ff ff       	callq  10000031 <fail>
    10000576:	90                   	nop
    10000577:	c9                   	leaveq 
    10000578:	c3                   	retq   

0000000010000579 <snprintf_check>:
    10000579:	55                   	push   %rbp
    1000057a:	48 89 e5             	mov    %rsp,%rbp
    1000057d:	48 81 ec f0 00 00 00 	sub    $0xf0,%rsp
    10000584:	48 89 bd 28 ff ff ff 	mov    %rdi,-0xd8(%rbp)
    1000058b:	48 89 b5 20 ff ff ff 	mov    %rsi,-0xe0(%rbp)
    10000592:	48 89 95 18 ff ff ff 	mov    %rdx,-0xe8(%rbp)
    10000599:	48 89 8d 68 ff ff ff 	mov    %rcx,-0x98(%rbp)
    100005a0:	4c 89 85 70 ff ff ff 	mov    %r8,-0x90(%rbp)
    100005a7:	4c 89 8d 78 ff ff ff 	mov    %r9,-0x88(%rbp)
    100005ae:	84 c0                	test   %al,%al
    100005b0:	74 20                	je     100005d2 <snprintf_check+0x59>
    100005b2:	0f 29 45 80          	movaps %xmm0,-0x80(%rbp)
    100005b6:	0f 29 4d 90          	movaps %xmm1,-0x70(%rbp)
    100005ba:	0f 29 55 a0          	movaps %xmm2,-0x60(%rbp)
    100005be:	0f 29 5d b0          	movaps %xmm3,-0x50(%rbp)
    100005c2:	0f 29 65 c0          	movaps %xmm4,-0x40(%rbp)
    100005c6:	0f 29 6d d0          	movaps %xmm5,-0x30(%rbp)
    100005ca:	0f 29 75 e0          	movaps %xmm6,-0x20(%rbp)
    100005ce:	0f 29 7d f0          	movaps %xmm7,-0x10(%rbp)
    100005d2:	c7 85 38 ff ff ff 18 	movl   $0x18,-0xc8(%rbp)
    100005d9:	00 00 00 
    100005dc:	c7 85 3c ff ff ff 30 	movl   $0x30,-0xc4(%rbp)
    100005e3:	00 00 00 
    100005e6:	48 8d 45 10          	lea    0x10(%rbp),%rax
    100005ea:	48 89 85 40 ff ff ff 	mov    %rax,-0xc0(%rbp)
    100005f1:	48 8d 85 50 ff ff ff 	lea    -0xb0(%rbp),%rax
    100005f8:	48 89 85 48 ff ff ff 	mov    %rax,-0xb8(%rbp)
    100005ff:	48 8d 8d 38 ff ff ff 	lea    -0xc8(%rbp),%rcx
    10000606:	48 8b 95 18 ff ff ff 	mov    -0xe8(%rbp),%rdx
    1000060d:	48 8b b5 20 ff ff ff 	mov    -0xe0(%rbp),%rsi
    10000614:	48 8b 85 28 ff ff ff 	mov    -0xd8(%rbp),%rax
    1000061b:	48 89 c7             	mov    %rax,%rdi
    1000061e:	e8 ea fe ff ff       	callq  1000050d <vsnprintf_check>
    10000623:	90                   	nop
    10000624:	c9                   	leaveq 
    10000625:	c3                   	retq   

0000000010000626 <write_file>:
    10000626:	55                   	push   %rbp
    10000627:	48 89 e5             	mov    %rsp,%rbp
    1000062a:	48 81 ec f0 04 00 00 	sub    $0x4f0,%rsp
    10000631:	48 89 bd 18 fb ff ff 	mov    %rdi,-0x4e8(%rbp)
    10000638:	48 89 b5 10 fb ff ff 	mov    %rsi,-0x4f0(%rbp)
    1000063f:	48 89 95 60 ff ff ff 	mov    %rdx,-0xa0(%rbp)
    10000646:	48 89 8d 68 ff ff ff 	mov    %rcx,-0x98(%rbp)
    1000064d:	4c 89 85 70 ff ff ff 	mov    %r8,-0x90(%rbp)
    10000654:	4c 89 8d 78 ff ff ff 	mov    %r9,-0x88(%rbp)
    1000065b:	84 c0                	test   %al,%al
    1000065d:	74 20                	je     1000067f <write_file+0x59>
    1000065f:	0f 29 45 80          	movaps %xmm0,-0x80(%rbp)
    10000663:	0f 29 4d 90          	movaps %xmm1,-0x70(%rbp)
    10000667:	0f 29 55 a0          	movaps %xmm2,-0x60(%rbp)
    1000066b:	0f 29 5d b0          	movaps %xmm3,-0x50(%rbp)
    1000066f:	0f 29 65 c0          	movaps %xmm4,-0x40(%rbp)
    10000673:	0f 29 6d d0          	movaps %xmm5,-0x30(%rbp)
    10000677:	0f 29 75 e0          	movaps %xmm6,-0x20(%rbp)
    1000067b:	0f 29 7d f0          	movaps %xmm7,-0x10(%rbp)
    1000067f:	c7 85 28 fb ff ff 10 	movl   $0x10,-0x4d8(%rbp)
    10000686:	00 00 00 
    10000689:	c7 85 2c fb ff ff 30 	movl   $0x30,-0x4d4(%rbp)
    10000690:	00 00 00 
    10000693:	48 8d 45 10          	lea    0x10(%rbp),%rax
    10000697:	48 89 85 30 fb ff ff 	mov    %rax,-0x4d0(%rbp)
    1000069e:	48 8d 85 50 ff ff ff 	lea    -0xb0(%rbp),%rax
    100006a5:	48 89 85 38 fb ff ff 	mov    %rax,-0x4c8(%rbp)
    100006ac:	48 8d 8d 28 fb ff ff 	lea    -0x4d8(%rbp),%rcx
    100006b3:	48 8b 95 10 fb ff ff 	mov    -0x4f0(%rbp),%rdx
    100006ba:	48 8d 85 40 fb ff ff 	lea    -0x4c0(%rbp),%rax
    100006c1:	be 00 04 00 00       	mov    $0x400,%esi
    100006c6:	48 89 c7             	mov    %rax,%rdi
    100006c9:	e8 4a 53 00 00       	callq  10005a18 <vsnprintf>
    100006ce:	c6 85 3f ff ff ff 00 	movb   $0x0,-0xc1(%rbp)
    100006d5:	48 8d 85 40 fb ff ff 	lea    -0x4c0(%rbp),%rax
    100006dc:	48 89 c7             	mov    %rax,%rdi
    100006df:	e8 b9 53 00 00       	callq  10005a9d <strlen>
    100006e4:	89 85 4c ff ff ff    	mov    %eax,-0xb4(%rbp)
    100006ea:	48 8b 85 18 fb ff ff 	mov    -0x4e8(%rbp),%rax
    100006f1:	be 01 00 00 00       	mov    $0x1,%esi
    100006f6:	48 89 c7             	mov    %rax,%rdi
    100006f9:	e8 1d 2c 00 00       	callq  1000331b <open>
    100006fe:	89 85 48 ff ff ff    	mov    %eax,-0xb8(%rbp)
    10000704:	83 bd 48 ff ff ff ff 	cmpl   $0xffffffff,-0xb8(%rbp)
    1000070b:	75 07                	jne    10000714 <write_file+0xee>
    1000070d:	b8 00 00 00 00       	mov    $0x0,%eax
    10000712:	eb 66                	jmp    1000077a <write_file+0x154>
    10000714:	8b 85 4c ff ff ff    	mov    -0xb4(%rbp),%eax
    1000071a:	48 63 d0             	movslq %eax,%rdx
    1000071d:	48 8d 8d 40 fb ff ff 	lea    -0x4c0(%rbp),%rcx
    10000724:	8b 85 48 ff ff ff    	mov    -0xb8(%rbp),%eax
    1000072a:	48 89 ce             	mov    %rcx,%rsi
    1000072d:	89 c7                	mov    %eax,%edi
    1000072f:	e8 4a 2c 00 00       	callq  1000337e <write>
    10000734:	39 85 4c ff ff ff    	cmp    %eax,-0xb4(%rbp)
    1000073a:	74 2c                	je     10000768 <write_file+0x142>
    1000073c:	8b 05 96 f9 00 00    	mov    0xf996(%rip),%eax        # 100100d8 <errno>
    10000742:	89 85 44 ff ff ff    	mov    %eax,-0xbc(%rbp)
    10000748:	8b 85 48 ff ff ff    	mov    -0xb8(%rbp),%eax
    1000074e:	89 c7                	mov    %eax,%edi
    10000750:	e8 e8 2b 00 00       	callq  1000333d <close>
    10000755:	8b 85 44 ff ff ff    	mov    -0xbc(%rbp),%eax
    1000075b:	89 05 77 f9 00 00    	mov    %eax,0xf977(%rip)        # 100100d8 <errno>
    10000761:	b8 00 00 00 00       	mov    $0x0,%eax
    10000766:	eb 12                	jmp    1000077a <write_file+0x154>
    10000768:	8b 85 48 ff ff ff    	mov    -0xb8(%rbp),%eax
    1000076e:	89 c7                	mov    %eax,%edi
    10000770:	e8 c8 2b 00 00       	callq  1000333d <close>
    10000775:	b8 01 00 00 00       	mov    $0x1,%eax
    1000077a:	c9                   	leaveq 
    1000077b:	c3                   	retq   

000000001000077c <sandbox_common>:
    1000077c:	55                   	push   %rbp
    1000077d:	48 89 e5             	mov    %rsp,%rbp
    10000780:	48 83 ec 10          	sub    $0x10,%rsp
    10000784:	c7 45 fc 00 00 00 0a 	movl   $0xa000000,-0x4(%rbp)
    1000078b:	8b 45 fc             	mov    -0x4(%rbp),%eax
    1000078e:	89 45 f8             	mov    %eax,-0x8(%rbp)
    10000791:	48 8d 45 f8          	lea    -0x8(%rbp),%rax
    10000795:	48 89 c6             	mov    %rax,%rsi
    10000798:	bf 09 00 00 00       	mov    $0x9,%edi
    1000079d:	e8 24 47 00 00       	callq  10004ec6 <setrlimit>
    100007a2:	c7 45 fc 00 00 80 00 	movl   $0x800000,-0x4(%rbp)
    100007a9:	8b 45 fc             	mov    -0x4(%rbp),%eax
    100007ac:	89 45 f8             	mov    %eax,-0x8(%rbp)
    100007af:	48 8d 45 f8          	lea    -0x8(%rbp),%rax
    100007b3:	48 89 c6             	mov    %rax,%rsi
    100007b6:	bf 08 00 00 00       	mov    $0x8,%edi
    100007bb:	e8 06 47 00 00       	callq  10004ec6 <setrlimit>
    100007c0:	c7 45 fc 00 00 80 08 	movl   $0x8800000,-0x4(%rbp)
    100007c7:	8b 45 fc             	mov    -0x4(%rbp),%eax
    100007ca:	89 45 f8             	mov    %eax,-0x8(%rbp)
    100007cd:	48 8d 45 f8          	lea    -0x8(%rbp),%rax
    100007d1:	48 89 c6             	mov    %rax,%rsi
    100007d4:	bf 01 00 00 00       	mov    $0x1,%edi
    100007d9:	e8 e8 46 00 00       	callq  10004ec6 <setrlimit>
    100007de:	c7 45 fc 00 00 10 00 	movl   $0x100000,-0x4(%rbp)
    100007e5:	8b 45 fc             	mov    -0x4(%rbp),%eax
    100007e8:	89 45 f8             	mov    %eax,-0x8(%rbp)
    100007eb:	48 8d 45 f8          	lea    -0x8(%rbp),%rax
    100007ef:	48 89 c6             	mov    %rax,%rsi
    100007f2:	bf 03 00 00 00       	mov    $0x3,%edi
    100007f7:	e8 ca 46 00 00       	callq  10004ec6 <setrlimit>
    100007fc:	c7 45 fc 00 00 00 00 	movl   $0x0,-0x4(%rbp)
    10000803:	8b 45 fc             	mov    -0x4(%rbp),%eax
    10000806:	89 45 f8             	mov    %eax,-0x8(%rbp)
    10000809:	48 8d 45 f8          	lea    -0x8(%rbp),%rax
    1000080d:	48 89 c6             	mov    %rax,%rsi
    10000810:	bf 04 00 00 00       	mov    $0x4,%edi
    10000815:	e8 ac 46 00 00       	callq  10004ec6 <setrlimit>
    1000081a:	90                   	nop
    1000081b:	c9                   	leaveq 
    1000081c:	c3                   	retq   

000000001000081d <do_sandbox_none>:
    1000081d:	55                   	push   %rbp
    1000081e:	48 89 e5             	mov    %rsp,%rbp
    10000821:	48 83 ec 10          	sub    $0x10,%rsp
    10000825:	e8 11 41 00 00       	callq  1000493b <fork>
    1000082a:	89 45 fc             	mov    %eax,-0x4(%rbp)
    1000082d:	83 7d fc 00          	cmpl   $0x0,-0x4(%rbp)
    10000831:	79 0f                	jns    10000842 <do_sandbox_none+0x25>
    10000833:	bf 4c 64 00 10       	mov    $0x1000644c,%edi
    10000838:	b8 00 00 00 00       	mov    $0x0,%eax
    1000083d:	e8 ef f7 ff ff       	callq  10000031 <fail>
    10000842:	83 7d fc 00          	cmpl   $0x0,-0x4(%rbp)
    10000846:	74 05                	je     1000084d <do_sandbox_none+0x30>
    10000848:	8b 45 fc             	mov    -0x4(%rbp),%eax
    1000084b:	eb 1e                	jmp    1000086b <do_sandbox_none+0x4e>
    1000084d:	b8 00 00 00 00       	mov    $0x0,%eax
    10000852:	e8 25 ff ff ff       	callq  1000077c <sandbox_common>
    10000857:	b8 00 00 00 00       	mov    $0x0,%eax
    1000085c:	e8 ff 02 00 00       	callq  10000b60 <loop>
    10000861:	bf 01 00 00 00       	mov    $0x1,%edi
    10000866:	e8 95 f7 ff ff       	callq  10000000 <doexit>
    1000086b:	c9                   	leaveq 
    1000086c:	c3                   	retq   

000000001000086d <remove_dir>:
    1000086d:	55                   	push   %rbp
    1000086e:	48 89 e5             	mov    %rsp,%rbp
    10000871:	48 81 ec c0 10 00 00 	sub    $0x10c0,%rsp
    10000878:	48 89 bd 48 ef ff ff 	mov    %rdi,-0x10b8(%rbp)
    1000087f:	c7 45 f8 00 00 00 00 	movl   $0x0,-0x8(%rbp)
    10000886:	48 8b 85 48 ef ff ff 	mov    -0x10b8(%rbp),%rax
    1000088d:	48 89 c7             	mov    %rax,%rdi
    10000890:	e8 c1 28 00 00       	callq  10003156 <opendir>
    10000895:	48 89 45 f0          	mov    %rax,-0x10(%rbp)
    10000899:	48 83 7d f0 00       	cmpq   $0x0,-0x10(%rbp)
    1000089e:	0f 85 54 01 00 00    	jne    100009f8 <remove_dir+0x18b>
    100008a4:	48 8b 85 48 ef ff ff 	mov    -0x10b8(%rbp),%rax
    100008ab:	48 89 c6             	mov    %rax,%rsi
    100008ae:	bf 60 64 00 10       	mov    $0x10006460,%edi
    100008b3:	b8 00 00 00 00       	mov    $0x0,%eax
    100008b8:	e8 0a f9 ff ff       	callq  100001c7 <exitf>
    100008bd:	48 8b 45 e8          	mov    -0x18(%rbp),%rax
    100008c1:	48 83 c0 12          	add    $0x12,%rax
    100008c5:	be 73 64 00 10       	mov    $0x10006473,%esi
    100008ca:	48 89 c7             	mov    %rax,%rdi
    100008cd:	e8 02 53 00 00       	callq  10005bd4 <strcmp>
    100008d2:	85 c0                	test   %eax,%eax
    100008d4:	0f 84 1d 01 00 00    	je     100009f7 <remove_dir+0x18a>
    100008da:	48 8b 45 e8          	mov    -0x18(%rbp),%rax
    100008de:	48 83 c0 12          	add    $0x12,%rax
    100008e2:	be 75 64 00 10       	mov    $0x10006475,%esi
    100008e7:	48 89 c7             	mov    %rax,%rdi
    100008ea:	e8 e5 52 00 00       	callq  10005bd4 <strcmp>
    100008ef:	85 c0                	test   %eax,%eax
    100008f1:	0f 84 00 01 00 00    	je     100009f7 <remove_dir+0x18a>
    100008f7:	48 8b 45 e8          	mov    -0x18(%rbp),%rax
    100008fb:	48 8d 48 12          	lea    0x12(%rax),%rcx
    100008ff:	48 8b 95 48 ef ff ff 	mov    -0x10b8(%rbp),%rdx
    10000906:	48 8d 85 e0 ef ff ff 	lea    -0x1020(%rbp),%rax
    1000090d:	49 89 c8             	mov    %rcx,%r8
    10000910:	48 89 d1             	mov    %rdx,%rcx
    10000913:	ba 78 64 00 10       	mov    $0x10006478,%edx
    10000918:	be 00 10 00 00       	mov    $0x1000,%esi
    1000091d:	48 89 c7             	mov    %rax,%rdi
    10000920:	b8 00 00 00 00       	mov    $0x0,%eax
    10000925:	e8 36 50 00 00       	callq  10005960 <snprintf>
    1000092a:	48 8d 95 50 ef ff ff 	lea    -0x10b0(%rbp),%rdx
    10000931:	48 8d 85 e0 ef ff ff 	lea    -0x1020(%rbp),%rax
    10000938:	48 89 d6             	mov    %rdx,%rsi
    1000093b:	48 89 c7             	mov    %rax,%rdi
    1000093e:	e8 2a 57 00 00       	callq  1000606d <lstat>
    10000943:	85 c0                	test   %eax,%eax
    10000945:	74 19                	je     10000960 <remove_dir+0xf3>
    10000947:	48 8d 85 e0 ef ff ff 	lea    -0x1020(%rbp),%rax
    1000094e:	48 89 c6             	mov    %rax,%rsi
    10000951:	bf 7e 64 00 10       	mov    $0x1000647e,%edi
    10000956:	b8 00 00 00 00       	mov    $0x0,%eax
    1000095b:	e8 67 f8 ff ff       	callq  100001c7 <exitf>
    10000960:	8b 85 68 ef ff ff    	mov    -0x1098(%rbp),%eax
    10000966:	25 00 f0 00 00       	and    $0xf000,%eax
    1000096b:	3d 00 40 00 00       	cmp    $0x4000,%eax
    10000970:	75 11                	jne    10000983 <remove_dir+0x116>
    10000972:	48 8d 85 e0 ef ff ff 	lea    -0x1020(%rbp),%rax
    10000979:	48 89 c7             	mov    %rax,%rdi
    1000097c:	e8 ec fe ff ff       	callq  1000086d <remove_dir>
    10000981:	eb 75                	jmp    100009f8 <remove_dir+0x18b>
    10000983:	c7 45 fc 00 00 00 00 	movl   $0x0,-0x4(%rbp)
    1000098a:	48 8d 85 e0 ef ff ff 	lea    -0x1020(%rbp),%rax
    10000991:	48 89 c6             	mov    %rax,%rsi
    10000994:	bf 8f 64 00 10       	mov    $0x1000648f,%edi
    10000999:	b8 00 00 00 00       	mov    $0x0,%eax
    1000099e:	e8 f9 f8 ff ff       	callq  1000029c <debug>
    100009a3:	48 8d 85 e0 ef ff ff 	lea    -0x1020(%rbp),%rax
    100009aa:	48 89 c7             	mov    %rax,%rdi
    100009ad:	e8 4f 29 00 00       	callq  10003301 <unlink>
    100009b2:	85 c0                	test   %eax,%eax
    100009b4:	74 3e                	je     100009f4 <remove_dir+0x187>
    100009b6:	83 7d fc 64          	cmpl   $0x64,-0x4(%rbp)
    100009ba:	7e 19                	jle    100009d5 <remove_dir+0x168>
    100009bc:	48 8d 85 e0 ef ff ff 	lea    -0x1020(%rbp),%rax
    100009c3:	48 89 c6             	mov    %rax,%rsi
    100009c6:	bf 9b 64 00 10       	mov    $0x1000649b,%edi
    100009cb:	b8 00 00 00 00       	mov    $0x0,%eax
    100009d0:	e8 f2 f7 ff ff       	callq  100001c7 <exitf>
    100009d5:	48 8d 85 e0 ef ff ff 	lea    -0x1020(%rbp),%rax
    100009dc:	48 89 c6             	mov    %rax,%rsi
    100009df:	bf ad 64 00 10       	mov    $0x100064ad,%edi
    100009e4:	b8 00 00 00 00       	mov    $0x0,%eax
    100009e9:	e8 ae f8 ff ff       	callq  1000029c <debug>
    100009ee:	83 45 fc 01          	addl   $0x1,-0x4(%rbp)
    100009f2:	eb 96                	jmp    1000098a <remove_dir+0x11d>
    100009f4:	90                   	nop
    100009f5:	eb 01                	jmp    100009f8 <remove_dir+0x18b>
    100009f7:	90                   	nop
    100009f8:	48 8b 45 f0          	mov    -0x10(%rbp),%rax
    100009fc:	48 89 c7             	mov    %rax,%rdi
    100009ff:	e8 f9 27 00 00       	callq  100031fd <readdir>
    10000a04:	48 89 45 e8          	mov    %rax,-0x18(%rbp)
    10000a08:	48 83 7d e8 00       	cmpq   $0x0,-0x18(%rbp)
    10000a0d:	0f 85 aa fe ff ff    	jne    100008bd <remove_dir+0x50>
    10000a13:	48 8b 45 f0          	mov    -0x10(%rbp),%rax
    10000a17:	48 89 c7             	mov    %rax,%rdi
    10000a1a:	e8 17 28 00 00       	callq  10003236 <closedir>
    10000a1f:	90                   	nop
    10000a20:	c9                   	leaveq 
    10000a21:	c3                   	retq   

0000000010000a22 <inject_fault>:
    10000a22:	55                   	push   %rbp
    10000a23:	48 89 e5             	mov    %rsp,%rbp
    10000a26:	53                   	push   %rbx
    10000a27:	48 83 ec 38          	sub    $0x38,%rsp
    10000a2b:	89 7d cc             	mov    %edi,-0x34(%rbp)
    10000a2e:	be 02 00 00 00       	mov    $0x2,%esi
    10000a33:	bf b9 64 00 10       	mov    $0x100064b9,%edi
    10000a38:	e8 de 28 00 00       	callq  1000331b <open>
    10000a3d:	89 45 ec             	mov    %eax,-0x14(%rbp)
    10000a40:	83 7d ec ff          	cmpl   $0xffffffff,-0x14(%rbp)
    10000a44:	75 0f                	jne    10000a55 <inject_fault+0x33>
    10000a46:	bf d8 64 00 10       	mov    $0x100064d8,%edi
    10000a4b:	b8 00 00 00 00       	mov    $0x0,%eax
    10000a50:	e8 72 f7 ff ff       	callq  100001c7 <exitf>
    10000a55:	8b 45 cc             	mov    -0x34(%rbp),%eax
    10000a58:	8d 50 01             	lea    0x1(%rax),%edx
    10000a5b:	48 8d 45 d0          	lea    -0x30(%rbp),%rax
    10000a5f:	89 d1                	mov    %edx,%ecx
    10000a61:	ba 02 65 00 10       	mov    $0x10006502,%edx
    10000a66:	be 10 00 00 00       	mov    $0x10,%esi
    10000a6b:	48 89 c7             	mov    %rax,%rdi
    10000a6e:	b8 00 00 00 00       	mov    $0x0,%eax
    10000a73:	e8 e8 4e 00 00       	callq  10005960 <snprintf>
    10000a78:	48 8d 45 d0          	lea    -0x30(%rbp),%rax
    10000a7c:	48 89 c7             	mov    %rax,%rdi
    10000a7f:	e8 19 50 00 00       	callq  10005a9d <strlen>
    10000a84:	48 89 c2             	mov    %rax,%rdx
    10000a87:	48 8d 4d d0          	lea    -0x30(%rbp),%rcx
    10000a8b:	8b 45 ec             	mov    -0x14(%rbp),%eax
    10000a8e:	48 89 ce             	mov    %rcx,%rsi
    10000a91:	89 c7                	mov    %eax,%edi
    10000a93:	e8 e6 28 00 00       	callq  1000337e <write>
    10000a98:	48 63 d8             	movslq %eax,%rbx
    10000a9b:	48 8d 45 d0          	lea    -0x30(%rbp),%rax
    10000a9f:	48 89 c7             	mov    %rax,%rdi
    10000aa2:	e8 f6 4f 00 00       	callq  10005a9d <strlen>
    10000aa7:	48 39 c3             	cmp    %rax,%rbx
    10000aaa:	74 0f                	je     10000abb <inject_fault+0x99>
    10000aac:	bf 08 65 00 10       	mov    $0x10006508,%edi
    10000ab1:	b8 00 00 00 00       	mov    $0x0,%eax
    10000ab6:	e8 0c f7 ff ff       	callq  100001c7 <exitf>
    10000abb:	8b 45 ec             	mov    -0x14(%rbp),%eax
    10000abe:	48 83 c4 38          	add    $0x38,%rsp
    10000ac2:	5b                   	pop    %rbx
    10000ac3:	5d                   	pop    %rbp
    10000ac4:	c3                   	retq   

0000000010000ac5 <fault_injected>:
    10000ac5:	55                   	push   %rbp
    10000ac6:	48 89 e5             	mov    %rsp,%rbp
    10000ac9:	48 83 ec 30          	sub    $0x30,%rsp
    10000acd:	89 7d dc             	mov    %edi,-0x24(%rbp)
    10000ad0:	48 8d 4d e0          	lea    -0x20(%rbp),%rcx
    10000ad4:	8b 45 dc             	mov    -0x24(%rbp),%eax
    10000ad7:	ba 0f 00 00 00       	mov    $0xf,%edx
    10000adc:	48 89 ce             	mov    %rcx,%rsi
    10000adf:	89 c7                	mov    %eax,%edi
    10000ae1:	e8 6e 28 00 00       	callq  10003354 <read>
    10000ae6:	89 45 fc             	mov    %eax,-0x4(%rbp)
    10000ae9:	83 7d fc 00          	cmpl   $0x0,-0x4(%rbp)
    10000aed:	7f 0f                	jg     10000afe <fault_injected+0x39>
    10000aef:	bf 38 65 00 10       	mov    $0x10006538,%edi
    10000af4:	b8 00 00 00 00       	mov    $0x0,%eax
    10000af9:	e8 c9 f6 ff ff       	callq  100001c7 <exitf>
    10000afe:	83 7d fc 02          	cmpl   $0x2,-0x4(%rbp)
    10000b02:	75 17                	jne    10000b1b <fault_injected+0x56>
    10000b04:	0f b6 45 e0          	movzbl -0x20(%rbp),%eax
    10000b08:	3c 30                	cmp    $0x30,%al
    10000b0a:	75 0f                	jne    10000b1b <fault_injected+0x56>
    10000b0c:	0f b6 45 e1          	movzbl -0x1f(%rbp),%eax
    10000b10:	3c 0a                	cmp    $0xa,%al
    10000b12:	75 07                	jne    10000b1b <fault_injected+0x56>
    10000b14:	b8 01 00 00 00       	mov    $0x1,%eax
    10000b19:	eb 05                	jmp    10000b20 <fault_injected+0x5b>
    10000b1b:	b8 00 00 00 00       	mov    $0x0,%eax
    10000b20:	89 45 f8             	mov    %eax,-0x8(%rbp)
    10000b23:	c6 45 e0 30          	movb   $0x30,-0x20(%rbp)
    10000b27:	48 8d 4d e0          	lea    -0x20(%rbp),%rcx
    10000b2b:	8b 45 dc             	mov    -0x24(%rbp),%eax
    10000b2e:	ba 01 00 00 00       	mov    $0x1,%edx
    10000b33:	48 89 ce             	mov    %rcx,%rsi
    10000b36:	89 c7                	mov    %eax,%edi
    10000b38:	e8 41 28 00 00       	callq  1000337e <write>
    10000b3d:	83 f8 01             	cmp    $0x1,%eax
    10000b40:	74 0f                	je     10000b51 <fault_injected+0x8c>
    10000b42:	bf 08 65 00 10       	mov    $0x10006508,%edi
    10000b47:	b8 00 00 00 00       	mov    $0x0,%eax
    10000b4c:	e8 76 f6 ff ff       	callq  100001c7 <exitf>
    10000b51:	8b 45 dc             	mov    -0x24(%rbp),%eax
    10000b54:	89 c7                	mov    %eax,%edi
    10000b56:	e8 e2 27 00 00       	callq  1000333d <close>
    10000b5b:	8b 45 f8             	mov    -0x8(%rbp),%eax
    10000b5e:	c9                   	leaveq 
    10000b5f:	c3                   	retq   

0000000010000b60 <loop>:
    10000b60:	55                   	push   %rbp
    10000b61:	48 89 e5             	mov    %rsp,%rbp
    10000b64:	48 83 ec 60          	sub    $0x60,%rsp
    10000b68:	b8 00 00 00 00       	mov    $0x0,%eax
    10000b6d:	e8 1d 05 00 00       	callq  1000108f <reply_handshake>
    10000b72:	c7 45 fc 00 00 00 00 	movl   $0x0,-0x4(%rbp)
    10000b79:	8b 55 fc             	mov    -0x4(%rbp),%edx
    10000b7c:	48 8d 45 a0          	lea    -0x60(%rbp),%rax
    10000b80:	89 d1                	mov    %edx,%ecx
    10000b82:	ba 62 65 00 10       	mov    $0x10006562,%edx
    10000b87:	be 20 00 00 00       	mov    $0x20,%esi
    10000b8c:	48 89 c7             	mov    %rax,%rdi
    10000b8f:	b8 00 00 00 00       	mov    $0x0,%eax
    10000b94:	e8 c7 4d 00 00       	callq  10005960 <snprintf>
    10000b99:	48 8d 45 a0          	lea    -0x60(%rbp),%rax
    10000b9d:	48 89 c7             	mov    %rax,%rdi
    10000ba0:	e8 f8 26 00 00       	callq  1000329d <mkdir>
    10000ba5:	85 c0                	test   %eax,%eax
    10000ba7:	74 0f                	je     10000bb8 <loop+0x58>
    10000ba9:	bf 67 65 00 10       	mov    $0x10006567,%edi
    10000bae:	b8 00 00 00 00       	mov    $0x0,%eax
    10000bb3:	e8 79 f4 ff ff       	callq  10000031 <fail>
    10000bb8:	bf 77 65 00 10       	mov    $0x10006577,%edi
    10000bbd:	b8 00 00 00 00       	mov    $0x0,%eax
    10000bc2:	e8 d5 f6 ff ff       	callq  1000029c <debug>
    10000bc7:	bf 00 00 00 00       	mov    $0x0,%edi
    10000bcc:	e8 ee 04 00 00       	callq  100010bf <receive_execute>
    10000bd1:	e8 65 3d 00 00       	callq  1000493b <fork>
    10000bd6:	89 45 e8             	mov    %eax,-0x18(%rbp)
    10000bd9:	83 7d e8 00          	cmpl   $0x0,-0x18(%rbp)
    10000bdd:	79 0f                	jns    10000bee <loop+0x8e>
    10000bdf:	bf 91 65 00 10       	mov    $0x10006591,%edi
    10000be4:	b8 00 00 00 00       	mov    $0x0,%eax
    10000be9:	e8 43 f4 ff ff       	callq  10000031 <fail>
    10000bee:	83 7d e8 00          	cmpl   $0x0,-0x18(%rbp)
    10000bf2:	75 50                	jne    10000c44 <loop+0xe4>
    10000bf4:	48 8d 45 a0          	lea    -0x60(%rbp),%rax
    10000bf8:	48 89 c7             	mov    %rax,%rdi
    10000bfb:	e8 5e 26 00 00       	callq  1000325e <chdir>
    10000c00:	85 c0                	test   %eax,%eax
    10000c02:	74 0f                	je     10000c13 <loop+0xb3>
    10000c04:	bf fb 63 00 10       	mov    $0x100063fb,%edi
    10000c09:	b8 00 00 00 00       	mov    $0x0,%eax
    10000c0e:	e8 1e f4 ff ff       	callq  10000031 <fail>
    10000c13:	48 8b 05 f6 f3 24 01 	mov    0x124f3f6(%rip),%rax        # 11250010 <output_data>
    10000c1a:	48 89 05 ff f3 24 01 	mov    %rax,0x124f3ff(%rip)        # 11250020 <output_pos>
    10000c21:	b8 00 00 00 00       	mov    $0x0,%eax
    10000c26:	e8 e2 06 00 00       	callq  1000130d <execute_one>
    10000c2b:	bf 9e 65 00 10       	mov    $0x1000659e,%edi
    10000c30:	b8 00 00 00 00       	mov    $0x0,%eax
    10000c35:	e8 62 f6 ff ff       	callq  1000029c <debug>
    10000c3a:	bf 00 00 00 00       	mov    $0x0,%edi
    10000c3f:	e8 bc f3 ff ff       	callq  10000000 <doexit>
    10000c44:	8b 45 e8             	mov    -0x18(%rbp),%eax
    10000c47:	89 c6                	mov    %eax,%esi
    10000c49:	bf ae 65 00 10       	mov    $0x100065ae,%edi
    10000c4e:	b8 00 00 00 00       	mov    $0x0,%eax
    10000c53:	e8 44 f6 ff ff       	callq  1000029c <debug>
    10000c58:	c7 45 c8 00 00 00 00 	movl   $0x0,-0x38(%rbp)
    10000c5f:	b8 00 00 00 00       	mov    $0x0,%eax
    10000c64:	e8 09 f8 ff ff       	callq  10000472 <current_time_ms>
    10000c69:	48 89 45 e0          	mov    %rax,-0x20(%rbp)
    10000c6d:	48 8b 45 e0          	mov    -0x20(%rbp),%rax
    10000c71:	48 89 45 f0          	mov    %rax,-0x10(%rbp)
    10000c75:	bf c8 65 00 10       	mov    $0x100065c8,%edi
    10000c7a:	b8 00 00 00 00       	mov    $0x0,%eax
    10000c7f:	e8 18 f6 ff ff       	callq  1000029c <debug>
    10000c84:	48 8b 05 9d f3 24 01 	mov    0x124f39d(%rip),%rax        # 11250028 <output_data_mutex>
    10000c8b:	48 89 c7             	mov    %rax,%rdi
    10000c8e:	e8 0c 3e 00 00       	callq  10004a9f <sem_wait>
    10000c93:	48 8b 05 76 f3 24 01 	mov    0x124f376(%rip),%rax        # 11250010 <output_data>
    10000c9a:	8b 00                	mov    (%rax),%eax
    10000c9c:	89 45 ec             	mov    %eax,-0x14(%rbp)
    10000c9f:	48 8b 05 82 f3 24 01 	mov    0x124f382(%rip),%rax        # 11250028 <output_data_mutex>
    10000ca6:	48 89 c7             	mov    %rax,%rdi
    10000ca9:	e8 d7 3d 00 00       	callq  10004a85 <sem_post>
    10000cae:	bf ea 65 00 10       	mov    $0x100065ea,%edi
    10000cb3:	b8 00 00 00 00       	mov    $0x0,%eax
    10000cb8:	e8 df f5 ff ff       	callq  1000029c <debug>
    10000cbd:	48 8d 45 c8          	lea    -0x38(%rbp),%rax
    10000cc1:	ba 01 00 00 00       	mov    $0x1,%edx
    10000cc6:	48 89 c6             	mov    %rax,%rsi
    10000cc9:	bf ff ff ff ff       	mov    $0xffffffff,%edi
    10000cce:	e8 9c 3c 00 00       	callq  1000496f <waitpid>
    10000cd3:	89 45 dc             	mov    %eax,-0x24(%rbp)
    10000cd6:	8b 45 dc             	mov    -0x24(%rbp),%eax
    10000cd9:	89 c6                	mov    %eax,%esi
    10000cdb:	bf f9 65 00 10       	mov    $0x100065f9,%edi
    10000ce0:	b8 00 00 00 00       	mov    $0x0,%eax
    10000ce5:	e8 b2 f5 ff ff       	callq  1000029c <debug>
    10000cea:	8b 45 dc             	mov    -0x24(%rbp),%eax
    10000ced:	3b 45 e8             	cmp    -0x18(%rbp),%eax
    10000cf0:	75 1c                	jne    10000d0e <loop+0x1ae>
    10000cf2:	8b 55 dc             	mov    -0x24(%rbp),%edx
    10000cf5:	8b 45 e8             	mov    -0x18(%rbp),%eax
    10000cf8:	89 c6                	mov    %eax,%esi
    10000cfa:	bf 0e 66 00 10       	mov    $0x1000660e,%edi
    10000cff:	b8 00 00 00 00       	mov    $0x0,%eax
    10000d04:	e8 93 f5 ff ff       	callq  1000029c <debug>
    10000d09:	e9 12 01 00 00       	jmpq   10000e20 <loop+0x2c0>
    10000d0e:	bf 01 00 00 00       	mov    $0x1,%edi
    10000d13:	e8 8b 3c 00 00       	callq  100049a3 <sleep>
    10000d18:	b8 00 00 00 00       	mov    $0x0,%eax
    10000d1d:	e8 50 f7 ff ff       	callq  10000472 <current_time_ms>
    10000d22:	48 89 45 d0          	mov    %rax,-0x30(%rbp)
    10000d26:	48 8b 45 d0          	mov    -0x30(%rbp),%rax
    10000d2a:	48 89 c6             	mov    %rax,%rsi
    10000d2d:	bf 1e 66 00 10       	mov    $0x1000661e,%edi
    10000d32:	b8 00 00 00 00       	mov    $0x0,%eax
    10000d37:	e8 60 f5 ff ff       	callq  1000029c <debug>
    10000d3c:	bf c8 65 00 10       	mov    $0x100065c8,%edi
    10000d41:	b8 00 00 00 00       	mov    $0x0,%eax
    10000d46:	e8 51 f5 ff ff       	callq  1000029c <debug>
    10000d4b:	48 8b 05 d6 f2 24 01 	mov    0x124f2d6(%rip),%rax        # 11250028 <output_data_mutex>
    10000d52:	48 89 c7             	mov    %rax,%rdi
    10000d55:	e8 45 3d 00 00       	callq  10004a9f <sem_wait>
    10000d5a:	48 8b 05 af f2 24 01 	mov    0x124f2af(%rip),%rax        # 11250010 <output_data>
    10000d61:	8b 00                	mov    (%rax),%eax
    10000d63:	89 45 cc             	mov    %eax,-0x34(%rbp)
    10000d66:	48 8b 05 bb f2 24 01 	mov    0x124f2bb(%rip),%rax        # 11250028 <output_data_mutex>
    10000d6d:	48 89 c7             	mov    %rax,%rdi
    10000d70:	e8 10 3d 00 00       	callq  10004a85 <sem_post>
    10000d75:	bf ea 65 00 10       	mov    $0x100065ea,%edi
    10000d7a:	b8 00 00 00 00       	mov    $0x0,%eax
    10000d7f:	e8 18 f5 ff ff       	callq  1000029c <debug>
    10000d84:	8b 45 ec             	mov    -0x14(%rbp),%eax
    10000d87:	3b 45 cc             	cmp    -0x34(%rbp),%eax
    10000d8a:	74 0e                	je     10000d9a <loop+0x23a>
    10000d8c:	8b 45 cc             	mov    -0x34(%rbp),%eax
    10000d8f:	89 45 ec             	mov    %eax,-0x14(%rbp)
    10000d92:	48 8b 45 d0          	mov    -0x30(%rbp),%rax
    10000d96:	48 89 45 f0          	mov    %rax,-0x10(%rbp)
    10000d9a:	48 8b 45 d0          	mov    -0x30(%rbp),%rax
    10000d9e:	48 2b 45 e0          	sub    -0x20(%rbp),%rax
    10000da2:	48 3d b7 0b 00 00    	cmp    $0xbb7,%rax
    10000da8:	77 29                	ja     10000dd3 <loop+0x273>
    10000daa:	48 8b 45 d0          	mov    -0x30(%rbp),%rax
    10000dae:	48 2b 45 e0          	sub    -0x20(%rbp),%rax
    10000db2:	48 3d e7 03 00 00    	cmp    $0x3e7,%rax
    10000db8:	0f 86 ff fe ff ff    	jbe    10000cbd <loop+0x15d>
    10000dbe:	48 8b 45 d0          	mov    -0x30(%rbp),%rax
    10000dc2:	48 2b 45 f0          	sub    -0x10(%rbp),%rax
    10000dc6:	48 3d f3 01 00 00    	cmp    $0x1f3,%rax
    10000dcc:	77 05                	ja     10000dd3 <loop+0x273>
    10000dce:	e9 ea fe ff ff       	jmpq   10000cbd <loop+0x15d>
    10000dd3:	8b 55 dc             	mov    -0x24(%rbp),%edx
    10000dd6:	8b 45 e8             	mov    -0x18(%rbp),%eax
    10000dd9:	89 c6                	mov    %eax,%esi
    10000ddb:	bf 0e 66 00 10       	mov    $0x1000660e,%edi
    10000de0:	b8 00 00 00 00       	mov    $0x0,%eax
    10000de5:	e8 b2 f4 ff ff       	callq  1000029c <debug>
    10000dea:	bf 33 66 00 10       	mov    $0x10006633,%edi
    10000def:	b8 00 00 00 00       	mov    $0x0,%eax
    10000df4:	e8 a3 f4 ff ff       	callq  1000029c <debug>
    10000df9:	8b 45 e8             	mov    -0x18(%rbp),%eax
    10000dfc:	89 c7                	mov    %eax,%edi
    10000dfe:	e8 b7 3b 00 00       	callq  100049ba <kill>
    10000e03:	90                   	nop
    10000e04:	48 8d 45 c8          	lea    -0x38(%rbp),%rax
    10000e08:	ba 00 00 00 00       	mov    $0x0,%edx
    10000e0d:	48 89 c6             	mov    %rax,%rsi
    10000e10:	bf ff ff ff ff       	mov    $0xffffffff,%edi
    10000e15:	e8 55 3b 00 00       	callq  1000496f <waitpid>
    10000e1a:	39 45 e8             	cmp    %eax,-0x18(%rbp)
    10000e1d:	75 e5                	jne    10000e04 <loop+0x2a4>
    10000e1f:	90                   	nop
    10000e20:	8b 45 c8             	mov    -0x38(%rbp),%eax
    10000e23:	c1 f8 08             	sar    $0x8,%eax
    10000e26:	0f b6 c0             	movzbl %al,%eax
    10000e29:	89 45 c8             	mov    %eax,-0x38(%rbp)
    10000e2c:	8b 45 c8             	mov    -0x38(%rbp),%eax
    10000e2f:	ba 43 00 00 00       	mov    $0x43,%edx
    10000e34:	39 d0                	cmp    %edx,%eax
    10000e36:	75 0f                	jne    10000e47 <loop+0x2e7>
    10000e38:	bf 3c 66 00 10       	mov    $0x1000663c,%edi
    10000e3d:	b8 00 00 00 00       	mov    $0x0,%eax
    10000e42:	e8 ea f1 ff ff       	callq  10000031 <fail>
    10000e47:	8b 45 c8             	mov    -0x38(%rbp),%eax
    10000e4a:	ba 44 00 00 00       	mov    $0x44,%edx
    10000e4f:	39 d0                	cmp    %edx,%eax
    10000e51:	75 0f                	jne    10000e62 <loop+0x302>
    10000e53:	bf 49 66 00 10       	mov    $0x10006649,%edi
    10000e58:	b8 00 00 00 00       	mov    $0x0,%eax
    10000e5d:	e8 a4 f2 ff ff       	callq  10000106 <error>
    10000e62:	bf 00 00 00 00       	mov    $0x0,%edi
    10000e67:	e8 4a 04 00 00       	callq  100012b6 <reply_execute>
    10000e6c:	bf 57 66 00 10       	mov    $0x10006657,%edi
    10000e71:	b8 00 00 00 00       	mov    $0x0,%eax
    10000e76:	e8 21 f4 ff ff       	callq  1000029c <debug>
    10000e7b:	48 8d 45 a0          	lea    -0x60(%rbp),%rax
    10000e7f:	48 89 c7             	mov    %rax,%rdi
    10000e82:	e8 e6 f9 ff ff       	callq  1000086d <remove_dir>
    10000e87:	83 45 fc 01          	addl   $0x1,-0x4(%rbp)
    10000e8b:	e9 e9 fc ff ff       	jmpq   10000b79 <loop+0x19>

0000000010000e90 <event_init>:
    10000e90:	55                   	push   %rbp
    10000e91:	48 89 e5             	mov    %rsp,%rbp
    10000e94:	48 89 7d e8          	mov    %rdi,-0x18(%rbp)
    10000e98:	48 8b 45 e8          	mov    -0x18(%rbp),%rax
    10000e9c:	48 89 45 f8          	mov    %rax,-0x8(%rbp)
    10000ea0:	c7 45 f4 00 00 00 00 	movl   $0x0,-0xc(%rbp)
    10000ea7:	48 8b 45 f8          	mov    -0x8(%rbp),%rax
    10000eab:	8b 55 f4             	mov    -0xc(%rbp),%edx
    10000eae:	89 10                	mov    %edx,(%rax)
    10000eb0:	90                   	nop
    10000eb1:	5d                   	pop    %rbp
    10000eb2:	c3                   	retq   

0000000010000eb3 <event_reset>:
    10000eb3:	55                   	push   %rbp
    10000eb4:	48 89 e5             	mov    %rsp,%rbp
    10000eb7:	48 89 7d e8          	mov    %rdi,-0x18(%rbp)
    10000ebb:	48 8b 45 e8          	mov    -0x18(%rbp),%rax
    10000ebf:	48 89 45 f8          	mov    %rax,-0x8(%rbp)
    10000ec3:	c7 45 f4 00 00 00 00 	movl   $0x0,-0xc(%rbp)
    10000eca:	48 8b 45 f8          	mov    -0x8(%rbp),%rax
    10000ece:	8b 55 f4             	mov    -0xc(%rbp),%edx
    10000ed1:	89 10                	mov    %edx,(%rax)
    10000ed3:	90                   	nop
    10000ed4:	5d                   	pop    %rbp
    10000ed5:	c3                   	retq   

0000000010000ed6 <event_set>:
    10000ed6:	55                   	push   %rbp
    10000ed7:	48 89 e5             	mov    %rsp,%rbp
    10000eda:	48 83 ec 20          	sub    $0x20,%rsp
    10000ede:	48 89 7d e8          	mov    %rdi,-0x18(%rbp)
    10000ee2:	48 8b 45 e8          	mov    -0x18(%rbp),%rax
    10000ee6:	8b 00                	mov    (%rax),%eax
    10000ee8:	85 c0                	test   %eax,%eax
    10000eea:	74 0f                	je     10000efb <event_set+0x25>
    10000eec:	bf 65 66 00 10       	mov    $0x10006665,%edi
    10000ef1:	b8 00 00 00 00       	mov    $0x0,%eax
    10000ef6:	e8 36 f1 ff ff       	callq  10000031 <fail>
    10000efb:	48 8b 45 e8          	mov    -0x18(%rbp),%rax
    10000eff:	48 89 45 f8          	mov    %rax,-0x8(%rbp)
    10000f03:	c7 45 f4 01 00 00 00 	movl   $0x1,-0xc(%rbp)
    10000f0a:	48 8b 45 f8          	mov    -0x8(%rbp),%rax
    10000f0e:	8b 55 f4             	mov    -0xc(%rbp),%edx
    10000f11:	89 10                	mov    %edx,(%rax)
    10000f13:	90                   	nop
    10000f14:	c9                   	leaveq 
    10000f15:	c3                   	retq   

0000000010000f16 <event_isset>:
    10000f16:	55                   	push   %rbp
    10000f17:	48 89 e5             	mov    %rsp,%rbp
    10000f1a:	48 89 7d e8          	mov    %rdi,-0x18(%rbp)
    10000f1e:	48 8b 45 e8          	mov    -0x18(%rbp),%rax
    10000f22:	48 89 45 f8          	mov    %rax,-0x8(%rbp)
    10000f26:	48 8b 45 f8          	mov    -0x8(%rbp),%rax
    10000f2a:	8b 00                	mov    (%rax),%eax
    10000f2c:	90                   	nop
    10000f2d:	5d                   	pop    %rbp
    10000f2e:	c3                   	retq   

0000000010000f2f <kAFL_hypercall>:
    10000f2f:	55                   	push   %rbp
    10000f30:	48 89 e5             	mov    %rsp,%rbp
    10000f33:	48 83 ec 20          	sub    $0x20,%rsp
    10000f37:	48 89 7d e8          	mov    %rdi,-0x18(%rbp)
    10000f3b:	48 89 75 e0          	mov    %rsi,-0x20(%rbp)
    10000f3f:	48 c7 45 f8 1f 00 00 	movq   $0x1f,-0x8(%rbp)
    10000f46:	00 
    10000f47:	48 8b 45 e0          	mov    -0x20(%rbp),%rax
    10000f4b:	48 89 c1             	mov    %rax,%rcx
    10000f4e:	48 8b 45 e8          	mov    -0x18(%rbp),%rax
    10000f52:	48 89 c3             	mov    %rax,%rbx
    10000f55:	48 8b 45 f8          	mov    -0x8(%rbp),%rax
    10000f59:	48 89 c0             	mov    %rax,%rax
    10000f5c:	0f 01 c1             	vmcall 
    10000f5f:	bf 77 66 00 10       	mov    $0x10006677,%edi
    10000f64:	b8 00 00 00 00       	mov    $0x0,%eax
    10000f69:	e8 6a 2c 00 00       	callq  10003bd8 <cprintf>
    10000f6e:	90                   	nop
    10000f6f:	c9                   	leaveq 
    10000f70:	c3                   	retq   

0000000010000f71 <setup_control_pipes>:
    10000f71:	55                   	push   %rbp
    10000f72:	48 89 e5             	mov    %rsp,%rbp
    10000f75:	48 b8 ce fa ad eb fe 	movabs $0xbadc0ffeebadface,%rax
    10000f7c:	0f dc ba 
    10000f7f:	48 89 05 1a 2f 14 01 	mov    %rax,0x1142f1a(%rip)        # 11143ea0 <kInMagicNext>
    10000f86:	90                   	nop
    10000f87:	5d                   	pop    %rbp
    10000f88:	c3                   	retq   

0000000010000f89 <parse_env_flags>:
    10000f89:	55                   	push   %rbp
    10000f8a:	48 89 e5             	mov    %rsp,%rbp
    10000f8d:	48 89 7d f8          	mov    %rdi,-0x8(%rbp)
    10000f91:	48 8b 45 f8          	mov    -0x8(%rbp),%rax
    10000f95:	83 e0 01             	and    $0x1,%eax
    10000f98:	89 05 62 f0 00 00    	mov    %eax,0xf062(%rip)        # 10010000 <flag_debug>
    10000f9e:	48 8b 45 f8          	mov    -0x8(%rbp),%rax
    10000fa2:	83 e0 02             	and    $0x2,%eax
    10000fa5:	89 05 79 f0 01 00    	mov    %eax,0x1f079(%rip)        # 10020024 <flag_cover>
    10000fab:	c7 05 4b f0 01 00 00 	movl   $0x0,0x1f04b(%rip)        # 10020000 <flag_sandbox>
    10000fb2:	00 00 00 
    10000fb5:	48 8b 45 f8          	mov    -0x8(%rbp),%rax
    10000fb9:	83 e0 04             	and    $0x4,%eax
    10000fbc:	48 85 c0             	test   %rax,%rax
    10000fbf:	74 0c                	je     10000fcd <parse_env_flags+0x44>
    10000fc1:	c7 05 35 f0 01 00 01 	movl   $0x1,0x1f035(%rip)        # 10020000 <flag_sandbox>
    10000fc8:	00 00 00 
    10000fcb:	eb 16                	jmp    10000fe3 <parse_env_flags+0x5a>
    10000fcd:	48 8b 45 f8          	mov    -0x8(%rbp),%rax
    10000fd1:	83 e0 08             	and    $0x8,%eax
    10000fd4:	48 85 c0             	test   %rax,%rax
    10000fd7:	74 0a                	je     10000fe3 <parse_env_flags+0x5a>
    10000fd9:	c7 05 1d f0 01 00 02 	movl   $0x2,0x1f01d(%rip)        # 10020000 <flag_sandbox>
    10000fe0:	00 00 00 
    10000fe3:	48 8b 45 f8          	mov    -0x8(%rbp),%rax
    10000fe7:	83 e0 10             	and    $0x10,%eax
    10000fea:	89 05 20 f0 01 00    	mov    %eax,0x1f020(%rip)        # 10020010 <flag_enable_tun>
    10000ff0:	48 8b 45 f8          	mov    -0x8(%rbp),%rax
    10000ff4:	83 e0 20             	and    $0x20,%eax
    10000ff7:	89 05 b3 2e 14 01    	mov    %eax,0x1142eb3(%rip)        # 11143eb0 <flag_enable_fault_injection>
    10000ffd:	90                   	nop
    10000ffe:	5d                   	pop    %rbp
    10000fff:	c3                   	retq   

0000000010001000 <receive_handshake>:
    10001000:	55                   	push   %rbp
    10001001:	48 89 e5             	mov    %rsp,%rbp
    10001004:	48 83 ec 10          	sub    $0x10,%rsp
    10001008:	bf ec 66 00 10       	mov    $0x100066ec,%edi
    1000100d:	b8 00 00 00 00       	mov    $0x0,%eax
    10001012:	e8 c1 2b 00 00       	callq  10003bd8 <cprintf>
    10001017:	48 c7 45 f8 00 00 03 	movq   $0x10030000,-0x8(%rbp)
    1000101e:	10 
    1000101f:	b8 00 00 03 10       	mov    $0x10030000,%eax
    10001024:	48 89 c6             	mov    %rax,%rsi
    10001027:	bf 0e 00 00 00       	mov    $0xe,%edi
    1000102c:	e8 fe fe ff ff       	callq  10000f2f <kAFL_hypercall>
    10001031:	48 8b 45 f8          	mov    -0x8(%rbp),%rax
    10001035:	48 8b 00             	mov    (%rax),%rax
    10001038:	48 89 c6             	mov    %rax,%rsi
    1000103b:	bf 01 67 00 10       	mov    $0x10006701,%edi
    10001040:	b8 00 00 00 00       	mov    $0x0,%eax
    10001045:	e8 8e 2b 00 00       	callq  10003bd8 <cprintf>
    1000104a:	48 8b 45 f8          	mov    -0x8(%rbp),%rax
    1000104e:	48 8b 10             	mov    (%rax),%rdx
    10001051:	48 b8 ce fa ad eb fe 	movabs $0xbadc0ffeebadface,%rax
    10001058:	0f dc ba 
    1000105b:	48 39 c2             	cmp    %rax,%rdx
    1000105e:	74 0c                	je     1000106c <receive_handshake+0x6c>
    10001060:	bf 01 00 00 00       	mov    $0x1,%edi
    10001065:	e8 39 39 00 00       	callq  100049a3 <sleep>
    1000106a:	eb b3                	jmp    1000101f <receive_handshake+0x1f>
    1000106c:	90                   	nop
    1000106d:	48 8b 45 f8          	mov    -0x8(%rbp),%rax
    10001071:	48 8b 40 08          	mov    0x8(%rax),%rax
    10001075:	48 89 c7             	mov    %rax,%rdi
    10001078:	e8 0c ff ff ff       	callq  10000f89 <parse_env_flags>
    1000107d:	48 8b 45 f8          	mov    -0x8(%rbp),%rax
    10001081:	48 8b 40 10          	mov    0x10(%rax),%rax
    10001085:	48 89 05 8c ef 01 00 	mov    %rax,0x1ef8c(%rip)        # 10020018 <procid>
    1000108c:	90                   	nop
    1000108d:	c9                   	leaveq 
    1000108e:	c3                   	retq   

000000001000108f <reply_handshake>:
    1000108f:	55                   	push   %rbp
    10001090:	48 89 e5             	mov    %rsp,%rbp
    10001093:	48 83 ec 10          	sub    $0x10,%rsp
    10001097:	48 c7 45 f8 00 00 15 	movq   $0x11150000,-0x8(%rbp)
    1000109e:	11 
    1000109f:	ba 0d f0 ad 0b       	mov    $0xbadf00d,%edx
    100010a4:	48 8b 45 f8          	mov    -0x8(%rbp),%rax
    100010a8:	89 10                	mov    %edx,(%rax)
    100010aa:	b8 00 00 15 11       	mov    $0x11150000,%eax
    100010af:	48 89 c6             	mov    %rax,%rsi
    100010b2:	bf 0f 00 00 00       	mov    $0xf,%edi
    100010b7:	e8 73 fe ff ff       	callq  10000f2f <kAFL_hypercall>
    100010bc:	90                   	nop
    100010bd:	c9                   	leaveq 
    100010be:	c3                   	retq   

00000000100010bf <receive_execute>:
    100010bf:	55                   	push   %rbp
    100010c0:	48 89 e5             	mov    %rsp,%rbp
    100010c3:	53                   	push   %rbx
    100010c4:	48 83 ec 68          	sub    $0x68,%rsp
    100010c8:	89 7d 9c             	mov    %edi,-0x64(%rbp)
    100010cb:	48 c7 45 e8 00 00 03 	movq   $0x10030000,-0x18(%rbp)
    100010d2:	10 
    100010d3:	b8 00 00 03 10       	mov    $0x10030000,%eax
    100010d8:	48 89 c6             	mov    %rax,%rsi
    100010db:	bf 0e 00 00 00       	mov    $0xe,%edi
    100010e0:	e8 4a fe ff ff       	callq  10000f2f <kAFL_hypercall>
    100010e5:	48 8b 45 e8          	mov    -0x18(%rbp),%rax
    100010e9:	48 8b 10             	mov    (%rax),%rdx
    100010ec:	48 8b 05 ad 2d 14 01 	mov    0x1142dad(%rip),%rax        # 11143ea0 <kInMagicNext>
    100010f3:	48 39 c2             	cmp    %rax,%rdx
    100010f6:	74 2c                	je     10001124 <receive_execute+0x65>
    100010f8:	48 8b 15 a1 2d 14 01 	mov    0x1142da1(%rip),%rdx        # 11143ea0 <kInMagicNext>
    100010ff:	48 8b 45 e8          	mov    -0x18(%rbp),%rax
    10001103:	48 8b 00             	mov    (%rax),%rax
    10001106:	48 89 c6             	mov    %rax,%rsi
    10001109:	bf 16 67 00 10       	mov    $0x10006716,%edi
    1000110e:	b8 00 00 00 00       	mov    $0x0,%eax
    10001113:	e8 84 f1 ff ff       	callq  1000029c <debug>
    10001118:	bf 01 00 00 00       	mov    $0x1,%edi
    1000111d:	e8 81 38 00 00       	callq  100049a3 <sleep>
    10001122:	eb af                	jmp    100010d3 <receive_execute+0x14>
    10001124:	90                   	nop
    10001125:	48 8b 05 74 2d 14 01 	mov    0x1142d74(%rip),%rax        # 11143ea0 <kInMagicNext>
    1000112c:	48 83 c0 01          	add    $0x1,%rax
    10001130:	48 89 05 69 2d 14 01 	mov    %rax,0x1142d69(%rip)        # 11143ea0 <kInMagicNext>
    10001137:	48 8b 4d e8          	mov    -0x18(%rbp),%rcx
    1000113b:	48 8b 01             	mov    (%rcx),%rax
    1000113e:	48 8b 51 08          	mov    0x8(%rcx),%rdx
    10001142:	48 89 45 a0          	mov    %rax,-0x60(%rbp)
    10001146:	48 89 55 a8          	mov    %rdx,-0x58(%rbp)
    1000114a:	48 8b 41 10          	mov    0x10(%rcx),%rax
    1000114e:	48 8b 51 18          	mov    0x18(%rcx),%rdx
    10001152:	48 89 45 b0          	mov    %rax,-0x50(%rbp)
    10001156:	48 89 55 b8          	mov    %rdx,-0x48(%rbp)
    1000115a:	48 8b 41 20          	mov    0x20(%rcx),%rax
    1000115e:	48 8b 51 28          	mov    0x28(%rcx),%rdx
    10001162:	48 89 45 c0          	mov    %rax,-0x40(%rbp)
    10001166:	48 89 55 c8          	mov    %rdx,-0x38(%rbp)
    1000116a:	48 8b 41 30          	mov    0x30(%rcx),%rax
    1000116e:	48 89 45 d0          	mov    %rax,-0x30(%rbp)
    10001172:	48 8b 45 a8          	mov    -0x58(%rbp),%rax
    10001176:	48 89 c7             	mov    %rax,%rdi
    10001179:	e8 0b fe ff ff       	callq  10000f89 <parse_env_flags>
    1000117e:	48 8b 45 b8          	mov    -0x48(%rbp),%rax
    10001182:	48 89 05 8f ee 01 00 	mov    %rax,0x1ee8f(%rip)        # 10020018 <procid>
    10001189:	48 8b 45 b0          	mov    -0x50(%rbp),%rax
    1000118d:	83 e0 01             	and    $0x1,%eax
    10001190:	89 05 12 2d 14 01    	mov    %eax,0x1142d12(%rip)        # 11143ea8 <flag_collect_cover>
    10001196:	48 8b 45 b0          	mov    -0x50(%rbp),%rax
    1000119a:	83 e0 02             	and    $0x2,%eax
    1000119d:	89 05 9d 6e 25 01    	mov    %eax,0x1256e9d(%rip)        # 11258040 <flag_dedup_cover>
    100011a3:	48 8b 45 b0          	mov    -0x50(%rbp),%rax
    100011a7:	83 e0 04             	and    $0x4,%eax
    100011aa:	89 05 54 ee 13 01    	mov    %eax,0x113ee54(%rip)        # 11140004 <flag_inject_fault>
    100011b0:	48 8b 45 b0          	mov    -0x50(%rbp),%rax
    100011b4:	83 e0 08             	and    $0x8,%eax
    100011b7:	89 05 43 ee 24 01    	mov    %eax,0x124ee43(%rip)        # 11250000 <flag_collect_comps>
    100011bd:	48 8b 45 b0          	mov    -0x50(%rbp),%rax
    100011c1:	83 e0 10             	and    $0x10,%eax
    100011c4:	89 05 3e ee 24 01    	mov    %eax,0x124ee3e(%rip)        # 11250008 <flag_threaded>
    100011ca:	48 8b 45 b0          	mov    -0x50(%rbp),%rax
    100011ce:	83 e0 20             	and    $0x20,%eax
    100011d1:	89 05 2d ee 24 01    	mov    %eax,0x124ee2d(%rip)        # 11250004 <flag_collide>
    100011d7:	48 8b 45 c0          	mov    -0x40(%rbp),%rax
    100011db:	89 05 cb 2c 14 01    	mov    %eax,0x1142ccb(%rip)        # 11143eac <flag_fault_call>
    100011e1:	48 8b 45 c8          	mov    -0x38(%rbp),%rax
    100011e5:	89 05 31 ee 24 01    	mov    %eax,0x124ee31(%rip)        # 1125001c <flag_fault_nth>
    100011eb:	8b 05 17 ee 24 01    	mov    0x124ee17(%rip),%eax        # 11250008 <flag_threaded>
    100011f1:	85 c0                	test   %eax,%eax
    100011f3:	75 0a                	jne    100011ff <receive_execute+0x140>
    100011f5:	c7 05 05 ee 24 01 00 	movl   $0x0,0x124ee05(%rip)        # 11250004 <flag_collide>
    100011fc:	00 00 00 
    100011ff:	4c 8b 55 d0          	mov    -0x30(%rbp),%r10
    10001203:	44 8b 0d 12 ee 24 01 	mov    0x124ee12(%rip),%r9d        # 1125001c <flag_fault_nth>
    1000120a:	44 8b 05 9b 2c 14 01 	mov    0x1142c9b(%rip),%r8d        # 11143eac <flag_fault_call>
    10001211:	8b 3d ed ed 13 01    	mov    0x113eded(%rip),%edi        # 11140004 <flag_inject_fault>
    10001217:	8b 35 23 6e 25 01    	mov    0x1256e23(%rip),%esi        # 11258040 <flag_dedup_cover>
    1000121d:	8b 1d dd ed 24 01    	mov    0x124eddd(%rip),%ebx        # 11250000 <flag_collect_comps>
    10001223:	44 8b 1d 7e 2c 14 01 	mov    0x1142c7e(%rip),%r11d        # 11143ea8 <flag_collect_cover>
    1000122a:	8b 0d d4 ed 24 01    	mov    0x124edd4(%rip),%ecx        # 11250004 <flag_collide>
    10001230:	8b 15 d2 ed 24 01    	mov    0x124edd2(%rip),%edx        # 11250008 <flag_threaded>
    10001236:	48 8b 05 db ed 01 00 	mov    0x1eddb(%rip),%rax        # 10020018 <procid>
    1000123d:	48 83 ec 08          	sub    $0x8,%rsp
    10001241:	41 52                	push   %r10
    10001243:	41 51                	push   %r9
    10001245:	41 50                	push   %r8
    10001247:	57                   	push   %rdi
    10001248:	56                   	push   %rsi
    10001249:	41 89 d9             	mov    %ebx,%r9d
    1000124c:	45 89 d8             	mov    %r11d,%r8d
    1000124f:	48 89 c6             	mov    %rax,%rsi
    10001252:	bf 38 67 00 10       	mov    $0x10006738,%edi
    10001257:	b8 00 00 00 00       	mov    $0x0,%eax
    1000125c:	e8 3b f0 ff ff       	callq  1000029c <debug>
    10001261:	48 83 c4 30          	add    $0x30,%rsp
    10001265:	48 8b 45 d0          	mov    -0x30(%rbp),%rax
    10001269:	48 85 c0             	test   %rax,%rax
    1000126c:	75 15                	jne    10001283 <receive_execute+0x1c4>
    1000126e:	83 7d 9c 00          	cmpl   $0x0,-0x64(%rbp)
    10001272:	74 3b                	je     100012af <receive_execute+0x1f0>
    10001274:	bf 98 67 00 10       	mov    $0x10006798,%edi
    10001279:	b8 00 00 00 00       	mov    $0x0,%eax
    1000127e:	e8 ae ed ff ff       	callq  10000031 <fail>
    10001283:	48 c7 45 e0 00 00 00 	movq   $0x0,-0x20(%rbp)
    1000128a:	00 
    1000128b:	48 8b 45 d0          	mov    -0x30(%rbp),%rax
    1000128f:	48 39 45 e0          	cmp    %rax,-0x20(%rbp)
    10001293:	74 1b                	je     100012b0 <receive_execute+0x1f1>
    10001295:	48 8b 55 d0          	mov    -0x30(%rbp),%rdx
    10001299:	48 8b 45 e0          	mov    -0x20(%rbp),%rax
    1000129d:	48 89 c6             	mov    %rax,%rsi
    100012a0:	bf b0 67 00 10       	mov    $0x100067b0,%edi
    100012a5:	b8 00 00 00 00       	mov    $0x0,%eax
    100012aa:	e8 82 ed ff ff       	callq  10000031 <fail>
    100012af:	90                   	nop
    100012b0:	48 8b 5d f8          	mov    -0x8(%rbp),%rbx
    100012b4:	c9                   	leaveq 
    100012b5:	c3                   	retq   

00000000100012b6 <reply_execute>:
    100012b6:	55                   	push   %rbp
    100012b7:	48 89 e5             	mov    %rsp,%rbp
    100012ba:	48 83 ec 20          	sub    $0x20,%rsp
    100012be:	89 7d ec             	mov    %edi,-0x14(%rbp)
    100012c1:	bf cf 67 00 10       	mov    $0x100067cf,%edi
    100012c6:	b8 00 00 00 00       	mov    $0x0,%eax
    100012cb:	e8 cc ef ff ff       	callq  1000029c <debug>
    100012d0:	48 c7 45 f8 00 00 15 	movq   $0x11150000,-0x8(%rbp)
    100012d7:	11 
    100012d8:	ba 0d f0 ad 0b       	mov    $0xbadf00d,%edx
    100012dd:	48 8b 45 f8          	mov    -0x8(%rbp),%rax
    100012e1:	89 10                	mov    %edx,(%rax)
    100012e3:	48 8b 45 f8          	mov    -0x8(%rbp),%rax
    100012e7:	c7 40 04 01 00 00 00 	movl   $0x1,0x4(%rax)
    100012ee:	8b 55 ec             	mov    -0x14(%rbp),%edx
    100012f1:	48 8b 45 f8          	mov    -0x8(%rbp),%rax
    100012f5:	89 50 08             	mov    %edx,0x8(%rax)
    100012f8:	b8 00 00 15 11       	mov    $0x11150000,%eax
    100012fd:	48 89 c6             	mov    %rax,%rsi
    10001300:	bf 0f 00 00 00       	mov    $0xf,%edi
    10001305:	e8 25 fc ff ff       	callq  10000f2f <kAFL_hypercall>
    1000130a:	90                   	nop
    1000130b:	c9                   	leaveq 
    1000130c:	c3                   	retq   

000000001000130d <execute_one>:
    1000130d:	55                   	push   %rbp
    1000130e:	48 89 e5             	mov    %rsp,%rbp
    10001311:	48 81 ec 30 01 00 00 	sub    $0x130,%rsp
    10001318:	c7 45 fc 00 00 00 00 	movl   $0x0,-0x4(%rbp)
    1000131f:	bf 00 00 00 00       	mov    $0x0,%edi
    10001324:	e8 42 1d 00 00       	callq  1000306b <write_output>
    10001329:	b8 00 00 14 10       	mov    $0x10140000,%eax
    1000132e:	48 89 c6             	mov    %rax,%rsi
    10001331:	bf 01 00 00 00       	mov    $0x1,%edi
    10001336:	e8 f4 fb ff ff       	callq  10000f2f <kAFL_hypercall>
    1000133b:	b8 00 00 00 00       	mov    $0x0,%eax
    10001340:	e8 2d f1 ff ff       	callq  10000472 <current_time_ms>
    10001345:	48 89 45 d0          	mov    %rax,-0x30(%rbp)
    10001349:	48 c7 85 40 ff ff ff 	movq   $0x10140000,-0xc0(%rbp)
    10001350:	00 00 14 10 
    10001354:	83 7d fc 00          	cmpl   $0x0,-0x4(%rbp)
    10001358:	75 14                	jne    1000136e <execute_one+0x61>
    1000135a:	8b 05 a8 ec 24 01    	mov    0x124eca8(%rip),%eax        # 11250008 <flag_threaded>
    10001360:	85 c0                	test   %eax,%eax
    10001362:	75 0a                	jne    1000136e <execute_one+0x61>
    10001364:	bf 00 00 13 10       	mov    $0x10130000,%edi
    10001369:	e8 be 1c 00 00       	callq  1000302c <cover_enable>
    1000136e:	c7 45 f8 00 00 00 00 	movl   $0x0,-0x8(%rbp)
    10001375:	48 8d 85 40 ff ff ff 	lea    -0xc0(%rbp),%rax
    1000137c:	48 89 c7             	mov    %rax,%rdi
    1000137f:	e8 4a 19 00 00       	callq  10002cce <read_input>
    10001384:	48 89 45 c8          	mov    %rax,-0x38(%rbp)
    10001388:	48 c7 c0 ff ff ff ff 	mov    $0xffffffffffffffff,%rax
    1000138f:	48 39 45 c8          	cmp    %rax,-0x38(%rbp)
    10001393:	75 36                	jne    100013cb <execute_one+0xbe>
    10001395:	bf e0 67 00 10       	mov    $0x100067e0,%edi
    1000139a:	b8 00 00 00 00       	mov    $0x0,%eax
    1000139f:	e8 f8 ee ff ff       	callq  1000029c <debug>
    100013a4:	48 8b 05 65 ec 24 01 	mov    0x124ec65(%rip),%rax        # 11250010 <output_data>
    100013ab:	48 89 c6             	mov    %rax,%rsi
    100013ae:	bf 0b 00 00 00       	mov    $0xb,%edi
    100013b3:	e8 77 fb ff ff       	callq  10000f2f <kAFL_hypercall>
    100013b8:	8b 05 46 ec 24 01    	mov    0x124ec46(%rip),%eax        # 11250004 <flag_collide>
    100013be:	85 c0                	test   %eax,%eax
    100013c0:	0f 85 1b 06 00 00    	jne    100019e1 <execute_one+0x6d4>
    100013c6:	e9 54 06 00 00       	jmpq   10001a1f <execute_one+0x712>
    100013cb:	48 c7 c0 fe ff ff ff 	mov    $0xfffffffffffffffe,%rax
    100013d2:	48 39 45 c8          	cmp    %rax,-0x38(%rbp)
    100013d6:	0f 85 f6 03 00 00    	jne    100017d2 <execute_one+0x4c5>
    100013dc:	48 8d 85 40 ff ff ff 	lea    -0xc0(%rbp),%rax
    100013e3:	48 89 c7             	mov    %rax,%rdi
    100013e6:	e8 e3 18 00 00       	callq  10002cce <read_input>
    100013eb:	48 89 45 a8          	mov    %rax,-0x58(%rbp)
    100013ef:	48 8d 85 40 ff ff ff 	lea    -0xc0(%rbp),%rax
    100013f6:	48 89 c7             	mov    %rax,%rdi
    100013f9:	e8 d0 18 00 00       	callq  10002cce <read_input>
    100013fe:	48 89 45 a0          	mov    %rax,-0x60(%rbp)
    10001402:	48 8b 45 a0          	mov    -0x60(%rbp),%rax
    10001406:	48 83 f8 01          	cmp    $0x1,%rax
    1000140a:	74 7b                	je     10001487 <execute_one+0x17a>
    1000140c:	48 83 f8 01          	cmp    $0x1,%rax
    10001410:	72 19                	jb     1000142b <execute_one+0x11e>
    10001412:	48 83 f8 02          	cmp    $0x2,%rax
    10001416:	0f 84 c1 00 00 00    	je     100014dd <execute_one+0x1d0>
    1000141c:	48 83 f8 03          	cmp    $0x3,%rax
    10001420:	0f 84 22 01 00 00    	je     10001548 <execute_one+0x23b>
    10001426:	e9 8c 03 00 00       	jmpq   100017b7 <execute_one+0x4aa>
    1000142b:	48 8d 8d 28 ff ff ff 	lea    -0xd8(%rbp),%rcx
    10001432:	48 8d 95 30 ff ff ff 	lea    -0xd0(%rbp),%rdx
    10001439:	48 8d b5 38 ff ff ff 	lea    -0xc8(%rbp),%rsi
    10001440:	48 8d 85 40 ff ff ff 	lea    -0xc0(%rbp),%rax
    10001447:	48 89 c7             	mov    %rax,%rdi
    1000144a:	e8 9e 15 00 00       	callq  100029ed <read_const_arg>
    1000144f:	48 89 85 48 ff ff ff 	mov    %rax,-0xb8(%rbp)
    10001456:	48 8b bd 28 ff ff ff 	mov    -0xd8(%rbp),%rdi
    1000145d:	48 8b 8d 30 ff ff ff 	mov    -0xd0(%rbp),%rcx
    10001464:	48 8b 95 38 ff ff ff 	mov    -0xc8(%rbp),%rdx
    1000146b:	48 8b b5 48 ff ff ff 	mov    -0xb8(%rbp),%rsi
    10001472:	48 8b 45 a8          	mov    -0x58(%rbp),%rax
    10001476:	49 89 f8             	mov    %rdi,%r8
    10001479:	48 89 c7             	mov    %rax,%rdi
    1000147c:	e8 85 11 00 00       	callq  10002606 <copyin>
    10001481:	90                   	nop
    10001482:	e9 46 03 00 00       	jmpq   100017cd <execute_one+0x4c0>
    10001487:	48 8d 85 40 ff ff ff 	lea    -0xc0(%rbp),%rax
    1000148e:	48 89 c7             	mov    %rax,%rdi
    10001491:	e8 38 18 00 00       	callq  10002cce <read_input>
    10001496:	48 89 85 58 ff ff ff 	mov    %rax,-0xa8(%rbp)
    1000149d:	48 8d 85 40 ff ff ff 	lea    -0xc0(%rbp),%rax
    100014a4:	48 89 c7             	mov    %rax,%rdi
    100014a7:	e8 15 17 00 00       	callq  10002bc1 <read_result>
    100014ac:	48 89 85 50 ff ff ff 	mov    %rax,-0xb0(%rbp)
    100014b3:	48 8b 95 58 ff ff ff 	mov    -0xa8(%rbp),%rdx
    100014ba:	48 8b b5 50 ff ff ff 	mov    -0xb0(%rbp),%rsi
    100014c1:	48 8b 45 a8          	mov    -0x58(%rbp),%rax
    100014c5:	41 b8 00 00 00 00    	mov    $0x0,%r8d
    100014cb:	b9 00 00 00 00       	mov    $0x0,%ecx
    100014d0:	48 89 c7             	mov    %rax,%rdi
    100014d3:	e8 2e 11 00 00       	callq  10002606 <copyin>
    100014d8:	e9 f0 02 00 00       	jmpq   100017cd <execute_one+0x4c0>
    100014dd:	48 8d 85 40 ff ff ff 	lea    -0xc0(%rbp),%rax
    100014e4:	48 89 c7             	mov    %rax,%rdi
    100014e7:	e8 e2 17 00 00       	callq  10002cce <read_input>
    100014ec:	48 89 85 60 ff ff ff 	mov    %rax,-0xa0(%rbp)
    100014f3:	48 8b 8d 40 ff ff ff 	mov    -0xc0(%rbp),%rcx
    100014fa:	48 8b 95 60 ff ff ff 	mov    -0xa0(%rbp),%rdx
    10001501:	48 8b 45 a8          	mov    -0x58(%rbp),%rax
    10001505:	48 89 ce             	mov    %rcx,%rsi
    10001508:	48 89 c7             	mov    %rax,%rdi
    1000150b:	e8 89 4a 00 00       	callq  10005f99 <memcpy>
    10001510:	48 c7 45 f0 00 00 00 	movq   $0x0,-0x10(%rbp)
    10001517:	00 
    10001518:	eb 14                	jmp    1000152e <execute_one+0x221>
    1000151a:	48 8d 85 40 ff ff ff 	lea    -0xc0(%rbp),%rax
    10001521:	48 89 c7             	mov    %rax,%rdi
    10001524:	e8 a5 17 00 00       	callq  10002cce <read_input>
    10001529:	48 83 45 f0 01       	addq   $0x1,-0x10(%rbp)
    1000152e:	48 8b 85 60 ff ff ff 	mov    -0xa0(%rbp),%rax
    10001535:	48 83 c0 07          	add    $0x7,%rax
    10001539:	48 c1 e8 03          	shr    $0x3,%rax
    1000153d:	48 39 45 f0          	cmp    %rax,-0x10(%rbp)
    10001541:	72 d7                	jb     1000151a <execute_one+0x20d>
    10001543:	e9 85 02 00 00       	jmpq   100017cd <execute_one+0x4c0>
    10001548:	48 8b 45 a8          	mov    -0x58(%rbp),%rax
    1000154c:	48 89 c6             	mov    %rax,%rsi
    1000154f:	bf 0a 68 00 10       	mov    $0x1000680a,%edi
    10001554:	b8 00 00 00 00       	mov    $0x0,%eax
    10001559:	e8 3e ed ff ff       	callq  1000029c <debug>
    1000155e:	48 8d 85 40 ff ff ff 	lea    -0xc0(%rbp),%rax
    10001565:	48 89 c7             	mov    %rax,%rdi
    10001568:	e8 61 17 00 00       	callq  10002cce <read_input>
    1000156d:	48 89 45 98          	mov    %rax,-0x68(%rbp)
    10001571:	48 8b 45 a8          	mov    -0x58(%rbp),%rax
    10001575:	48 89 45 90          	mov    %rax,-0x70(%rbp)
    10001579:	48 8d 85 40 ff ff ff 	lea    -0xc0(%rbp),%rax
    10001580:	48 89 c7             	mov    %rax,%rdi
    10001583:	e8 46 17 00 00       	callq  10002cce <read_input>
    10001588:	48 89 45 88          	mov    %rax,-0x78(%rbp)
    1000158c:	48 8b 45 88          	mov    -0x78(%rbp),%rax
    10001590:	48 85 c0             	test   %rax,%rax
    10001593:	0f 85 08 02 00 00    	jne    100017a1 <execute_one+0x494>
    10001599:	48 83 7d 98 02       	cmpq   $0x2,-0x68(%rbp)
    1000159e:	74 16                	je     100015b6 <execute_one+0x2a9>
    100015a0:	48 8b 45 98          	mov    -0x68(%rbp),%rax
    100015a4:	48 89 c6             	mov    %rax,%rsi
    100015a7:	bf 20 68 00 10       	mov    $0x10006820,%edi
    100015ac:	b8 00 00 00 00       	mov    $0x0,%eax
    100015b1:	e8 7b ea ff ff       	callq  10000031 <fail>
    100015b6:	48 8b 45 90          	mov    -0x70(%rbp),%rax
    100015ba:	48 89 c6             	mov    %rax,%rsi
    100015bd:	bf 48 68 00 10       	mov    $0x10006848,%edi
    100015c2:	b8 00 00 00 00       	mov    $0x0,%eax
    100015c7:	e8 d0 ec ff ff       	callq  1000029c <debug>
    100015cc:	48 8d 85 24 ff ff ff 	lea    -0xdc(%rbp),%rax
    100015d3:	48 89 c7             	mov    %rax,%rdi
    100015d6:	e8 b5 ed ff ff       	callq  10000390 <csum_inet_init>
    100015db:	48 8d 85 40 ff ff ff 	lea    -0xc0(%rbp),%rax
    100015e2:	48 89 c7             	mov    %rax,%rdi
    100015e5:	e8 e4 16 00 00       	callq  10002cce <read_input>
    100015ea:	48 89 45 80          	mov    %rax,-0x80(%rbp)
    100015ee:	48 c7 45 e8 00 00 00 	movq   $0x0,-0x18(%rbp)
    100015f5:	00 
    100015f6:	e9 40 01 00 00       	jmpq   1000173b <execute_one+0x42e>
    100015fb:	48 8d 85 40 ff ff ff 	lea    -0xc0(%rbp),%rax
    10001602:	48 89 c7             	mov    %rax,%rdi
    10001605:	e8 c4 16 00 00       	callq  10002cce <read_input>
    1000160a:	48 89 85 70 ff ff ff 	mov    %rax,-0x90(%rbp)
    10001611:	48 8d 85 40 ff ff ff 	lea    -0xc0(%rbp),%rax
    10001618:	48 89 c7             	mov    %rax,%rdi
    1000161b:	e8 ae 16 00 00       	callq  10002cce <read_input>
    10001620:	48 89 85 18 ff ff ff 	mov    %rax,-0xe8(%rbp)
    10001627:	48 8d 85 40 ff ff ff 	lea    -0xc0(%rbp),%rax
    1000162e:	48 89 c7             	mov    %rax,%rdi
    10001631:	e8 98 16 00 00       	callq  10002cce <read_input>
    10001636:	48 89 85 68 ff ff ff 	mov    %rax,-0x98(%rbp)
    1000163d:	48 8b 85 70 ff ff ff 	mov    -0x90(%rbp),%rax
    10001644:	48 85 c0             	test   %rax,%rax
    10001647:	74 0b                	je     10001654 <execute_one+0x347>
    10001649:	48 83 f8 01          	cmp    $0x1,%rax
    1000164d:	74 51                	je     100016a0 <execute_one+0x393>
    1000164f:	e9 c9 00 00 00       	jmpq   1000171d <execute_one+0x410>
    10001654:	48 8b 95 18 ff ff ff 	mov    -0xe8(%rbp),%rdx
    1000165b:	48 8b 8d 68 ff ff ff 	mov    -0x98(%rbp),%rcx
    10001662:	48 8b 45 e8          	mov    -0x18(%rbp),%rax
    10001666:	48 89 c6             	mov    %rax,%rsi
    10001669:	bf 68 68 00 10       	mov    $0x10006868,%edi
    1000166e:	b8 00 00 00 00       	mov    $0x0,%eax
    10001673:	e8 24 ec ff ff       	callq  1000029c <debug>
    10001678:	48 8b 85 18 ff ff ff 	mov    -0xe8(%rbp),%rax
    1000167f:	48 89 c1             	mov    %rax,%rcx
    10001682:	48 8b 95 68 ff ff ff 	mov    -0x98(%rbp),%rdx
    10001689:	48 8d 85 24 ff ff ff 	lea    -0xdc(%rbp),%rax
    10001690:	48 89 ce             	mov    %rcx,%rsi
    10001693:	48 89 c7             	mov    %rax,%rdi
    10001696:	e8 0a ed ff ff       	callq  100003a5 <csum_inet_update>
    1000169b:	e9 96 00 00 00       	jmpq   10001736 <execute_one+0x429>
    100016a0:	48 83 bd 68 ff ff ff 	cmpq   $0x2,-0x98(%rbp)
    100016a7:	02 
    100016a8:	74 2d                	je     100016d7 <execute_one+0x3ca>
    100016aa:	48 83 bd 68 ff ff ff 	cmpq   $0x4,-0x98(%rbp)
    100016b1:	04 
    100016b2:	74 23                	je     100016d7 <execute_one+0x3ca>
    100016b4:	48 83 bd 68 ff ff ff 	cmpq   $0x8,-0x98(%rbp)
    100016bb:	08 
    100016bc:	74 19                	je     100016d7 <execute_one+0x3ca>
    100016be:	48 8b 85 68 ff ff ff 	mov    -0x98(%rbp),%rax
    100016c5:	48 89 c6             	mov    %rax,%rsi
    100016c8:	bf 98 68 00 10       	mov    $0x10006898,%edi
    100016cd:	b8 00 00 00 00       	mov    $0x0,%eax
    100016d2:	e8 5a e9 ff ff       	callq  10000031 <fail>
    100016d7:	48 8b 95 18 ff ff ff 	mov    -0xe8(%rbp),%rdx
    100016de:	48 8b 8d 68 ff ff ff 	mov    -0x98(%rbp),%rcx
    100016e5:	48 8b 45 e8          	mov    -0x18(%rbp),%rax
    100016e9:	48 89 c6             	mov    %rax,%rsi
    100016ec:	bf c0 68 00 10       	mov    $0x100068c0,%edi
    100016f1:	b8 00 00 00 00       	mov    $0x0,%eax
    100016f6:	e8 a1 eb ff ff       	callq  1000029c <debug>
    100016fb:	48 8b 95 68 ff ff ff 	mov    -0x98(%rbp),%rdx
    10001702:	48 8d 8d 18 ff ff ff 	lea    -0xe8(%rbp),%rcx
    10001709:	48 8d 85 24 ff ff ff 	lea    -0xdc(%rbp),%rax
    10001710:	48 89 ce             	mov    %rcx,%rsi
    10001713:	48 89 c7             	mov    %rax,%rdi
    10001716:	e8 8a ec ff ff       	callq  100003a5 <csum_inet_update>
    1000171b:	eb 19                	jmp    10001736 <execute_one+0x429>
    1000171d:	48 8b 85 70 ff ff ff 	mov    -0x90(%rbp),%rax
    10001724:	48 89 c6             	mov    %rax,%rsi
    10001727:	bf ed 68 00 10       	mov    $0x100068ed,%edi
    1000172c:	b8 00 00 00 00       	mov    $0x0,%eax
    10001731:	e8 fb e8 ff ff       	callq  10000031 <fail>
    10001736:	48 83 45 e8 01       	addq   $0x1,-0x18(%rbp)
    1000173b:	48 8b 45 e8          	mov    -0x18(%rbp),%rax
    1000173f:	48 3b 45 80          	cmp    -0x80(%rbp),%rax
    10001743:	0f 82 b2 fe ff ff    	jb     100015fb <execute_one+0x2ee>
    10001749:	48 8d 85 24 ff ff ff 	lea    -0xdc(%rbp),%rax
    10001750:	48 89 c7             	mov    %rax,%rdi
    10001753:	e8 01 ed ff ff       	callq  10000459 <csum_inet_digest>
    10001758:	66 89 85 7e ff ff ff 	mov    %ax,-0x82(%rbp)
    1000175f:	0f b7 85 7e ff ff ff 	movzwl -0x82(%rbp),%eax
    10001766:	48 8b 55 90          	mov    -0x70(%rbp),%rdx
    1000176a:	89 c6                	mov    %eax,%esi
    1000176c:	bf 10 69 00 10       	mov    $0x10006910,%edi
    10001771:	b8 00 00 00 00       	mov    $0x0,%eax
    10001776:	e8 21 eb ff ff       	callq  1000029c <debug>
    1000177b:	0f b7 b5 7e ff ff ff 	movzwl -0x82(%rbp),%esi
    10001782:	48 8b 45 90          	mov    -0x70(%rbp),%rax
    10001786:	41 b8 00 00 00 00    	mov    $0x0,%r8d
    1000178c:	b9 00 00 00 00       	mov    $0x0,%ecx
    10001791:	ba 02 00 00 00       	mov    $0x2,%edx
    10001796:	48 89 c7             	mov    %rax,%rdi
    10001799:	e8 68 0e 00 00       	callq  10002606 <copyin>
    1000179e:	90                   	nop
    1000179f:	eb 2c                	jmp    100017cd <execute_one+0x4c0>
    100017a1:	48 8b 45 88          	mov    -0x78(%rbp),%rax
    100017a5:	48 89 c6             	mov    %rax,%rsi
    100017a8:	bf 31 69 00 10       	mov    $0x10006931,%edi
    100017ad:	b8 00 00 00 00       	mov    $0x0,%eax
    100017b2:	e8 7a e8 ff ff       	callq  10000031 <fail>
    100017b7:	48 8b 45 a0          	mov    -0x60(%rbp),%rax
    100017bb:	48 89 c6             	mov    %rax,%rsi
    100017be:	bf 48 69 00 10       	mov    $0x10006948,%edi
    100017c3:	b8 00 00 00 00       	mov    $0x0,%eax
    100017c8:	e8 64 e8 ff ff       	callq  10000031 <fail>
    100017cd:	e9 0a 02 00 00       	jmpq   100019dc <execute_one+0x6cf>
    100017d2:	48 c7 c0 fd ff ff ff 	mov    $0xfffffffffffffffd,%rax
    100017d9:	48 39 45 c8          	cmp    %rax,-0x38(%rbp)
    100017dd:	75 32                	jne    10001811 <execute_one+0x504>
    100017df:	48 8d 85 40 ff ff ff 	lea    -0xc0(%rbp),%rax
    100017e6:	48 89 c7             	mov    %rax,%rdi
    100017e9:	e8 e0 14 00 00       	callq  10002cce <read_input>
    100017ee:	48 8d 85 40 ff ff ff 	lea    -0xc0(%rbp),%rax
    100017f5:	48 89 c7             	mov    %rax,%rdi
    100017f8:	e8 d1 14 00 00       	callq  10002cce <read_input>
    100017fd:	48 8d 85 40 ff ff ff 	lea    -0xc0(%rbp),%rax
    10001804:	48 89 c7             	mov    %rax,%rdi
    10001807:	e8 c2 14 00 00       	callq  10002cce <read_input>
    1000180c:	e9 cb 01 00 00       	jmpq   100019dc <execute_one+0x6cf>
    10001811:	8b 05 f1 67 00 00    	mov    0x67f1(%rip),%eax        # 10008008 <syscall_count>
    10001817:	89 c0                	mov    %eax,%eax
    10001819:	48 39 45 c8          	cmp    %rax,-0x38(%rbp)
    1000181d:	72 16                	jb     10001835 <execute_one+0x528>
    1000181f:	48 8b 45 c8          	mov    -0x38(%rbp),%rax
    10001823:	48 89 c6             	mov    %rax,%rsi
    10001826:	bf 5f 69 00 10       	mov    $0x1000695f,%edi
    1000182b:	b8 00 00 00 00       	mov    $0x0,%eax
    10001830:	e8 fc e7 ff ff       	callq  10000031 <fail>
    10001835:	48 8d 85 40 ff ff ff 	lea    -0xc0(%rbp),%rax
    1000183c:	48 89 c7             	mov    %rax,%rdi
    1000183f:	e8 8a 14 00 00       	callq  10002cce <read_input>
    10001844:	48 89 45 c0          	mov    %rax,-0x40(%rbp)
    10001848:	48 8d 85 40 ff ff ff 	lea    -0xc0(%rbp),%rax
    1000184f:	48 89 c7             	mov    %rax,%rdi
    10001852:	e8 77 14 00 00       	callq  10002cce <read_input>
    10001857:	48 89 45 b8          	mov    %rax,-0x48(%rbp)
    1000185b:	48 83 7d b8 09       	cmpq   $0x9,-0x48(%rbp)
    10001860:	76 16                	jbe    10001878 <execute_one+0x56b>
    10001862:	48 8b 45 b8          	mov    -0x48(%rbp),%rax
    10001866:	48 89 c6             	mov    %rax,%rsi
    10001869:	bf 80 69 00 10       	mov    $0x10006980,%edi
    1000186e:	b8 00 00 00 00       	mov    $0x0,%eax
    10001873:	e8 b9 e7 ff ff       	callq  10000031 <fail>
    10001878:	48 c7 85 d0 fe ff ff 	movq   $0x0,-0x130(%rbp)
    1000187f:	00 00 00 00 
    10001883:	48 c7 85 d8 fe ff ff 	movq   $0x0,-0x128(%rbp)
    1000188a:	00 00 00 00 
    1000188e:	48 c7 85 e0 fe ff ff 	movq   $0x0,-0x120(%rbp)
    10001895:	00 00 00 00 
    10001899:	48 c7 85 e8 fe ff ff 	movq   $0x0,-0x118(%rbp)
    100018a0:	00 00 00 00 
    100018a4:	48 c7 85 f0 fe ff ff 	movq   $0x0,-0x110(%rbp)
    100018ab:	00 00 00 00 
    100018af:	48 c7 85 f8 fe ff ff 	movq   $0x0,-0x108(%rbp)
    100018b6:	00 00 00 00 
    100018ba:	48 c7 85 00 ff ff ff 	movq   $0x0,-0x100(%rbp)
    100018c1:	00 00 00 00 
    100018c5:	48 c7 85 08 ff ff ff 	movq   $0x0,-0xf8(%rbp)
    100018cc:	00 00 00 00 
    100018d0:	48 c7 85 10 ff ff ff 	movq   $0x0,-0xf0(%rbp)
    100018d7:	00 00 00 00 
    100018db:	48 c7 45 e0 00 00 00 	movq   $0x0,-0x20(%rbp)
    100018e2:	00 
    100018e3:	eb 23                	jmp    10001908 <execute_one+0x5fb>
    100018e5:	48 8d 85 40 ff ff ff 	lea    -0xc0(%rbp),%rax
    100018ec:	48 89 c7             	mov    %rax,%rdi
    100018ef:	e8 80 10 00 00       	callq  10002974 <read_arg>
    100018f4:	48 89 c2             	mov    %rax,%rdx
    100018f7:	48 8b 45 e0          	mov    -0x20(%rbp),%rax
    100018fb:	48 89 94 c5 d0 fe ff 	mov    %rdx,-0x130(%rbp,%rax,8)
    10001902:	ff 
    10001903:	48 83 45 e0 01       	addq   $0x1,-0x20(%rbp)
    10001908:	48 8b 45 e0          	mov    -0x20(%rbp),%rax
    1000190c:	48 3b 45 b8          	cmp    -0x48(%rbp),%rax
    10001910:	72 d3                	jb     100018e5 <execute_one+0x5d8>
    10001912:	48 8b 45 b8          	mov    -0x48(%rbp),%rax
    10001916:	48 89 45 d8          	mov    %rax,-0x28(%rbp)
    1000191a:	eb 15                	jmp    10001931 <execute_one+0x624>
    1000191c:	48 8b 45 d8          	mov    -0x28(%rbp),%rax
    10001920:	48 c7 84 c5 d0 fe ff 	movq   $0x0,-0x130(%rbp,%rax,8)
    10001927:	ff 00 00 00 00 
    1000192c:	48 83 45 d8 01       	addq   $0x1,-0x28(%rbp)
    10001931:	48 83 7d d8 05       	cmpq   $0x5,-0x28(%rbp)
    10001936:	76 e4                	jbe    1000191c <execute_one+0x60f>
    10001938:	48 8b b5 40 ff ff ff 	mov    -0xc0(%rbp),%rsi
    1000193f:	48 8b 45 c8          	mov    -0x38(%rbp),%rax
    10001943:	41 89 c2             	mov    %eax,%r10d
    10001946:	8b 45 f8             	mov    -0x8(%rbp),%eax
    10001949:	8d 50 01             	lea    0x1(%rax),%edx
    1000194c:	89 55 f8             	mov    %edx,-0x8(%rbp)
    1000194f:	4c 8d 85 d0 fe ff ff 	lea    -0x130(%rbp),%r8
    10001956:	48 8b 7d b8          	mov    -0x48(%rbp),%rdi
    1000195a:	48 8b 4d c0          	mov    -0x40(%rbp),%rcx
    1000195e:	8b 55 fc             	mov    -0x4(%rbp),%edx
    10001961:	48 83 ec 08          	sub    $0x8,%rsp
    10001965:	56                   	push   %rsi
    10001966:	4d 89 c1             	mov    %r8,%r9
    10001969:	49 89 f8             	mov    %rdi,%r8
    1000196c:	44 89 d6             	mov    %r10d,%esi
    1000196f:	89 c7                	mov    %eax,%edi
    10001971:	e8 ac 00 00 00       	callq  10001a22 <schedule_call>
    10001976:	48 83 c4 10          	add    $0x10,%rsp
    1000197a:	48 89 45 b0          	mov    %rax,-0x50(%rbp)
    1000197e:	83 7d fc 00          	cmpl   $0x0,-0x4(%rbp)
    10001982:	74 0a                	je     1000198e <execute_one+0x681>
    10001984:	8b 45 f8             	mov    -0x8(%rbp),%eax
    10001987:	83 e0 01             	and    $0x1,%eax
    1000198a:	85 c0                	test   %eax,%eax
    1000198c:	74 4e                	je     100019dc <execute_one+0x6cf>
    1000198e:	8b 05 74 e6 24 01    	mov    0x124e674(%rip),%eax        # 11250008 <flag_threaded>
    10001994:	85 c0                	test   %eax,%eax
    10001996:	0f 85 d9 f9 ff ff    	jne    10001375 <execute_one+0x68>
    1000199c:	bf a9 69 00 10       	mov    $0x100069a9,%edi
    100019a1:	b8 00 00 00 00       	mov    $0x0,%eax
    100019a6:	e8 f1 e8 ff ff       	callq  1000029c <debug>
    100019ab:	48 81 7d b0 00 00 13 	cmpq   $0x10130000,-0x50(%rbp)
    100019b2:	10 
    100019b3:	74 0f                	je     100019c4 <execute_one+0x6b7>
    100019b5:	bf c0 69 00 10       	mov    $0x100069c0,%edi
    100019ba:	b8 00 00 00 00       	mov    $0x0,%eax
    100019bf:	e8 6d e6 ff ff       	callq  10000031 <fail>
    100019c4:	48 8b 45 b0          	mov    -0x50(%rbp),%rax
    100019c8:	48 89 c7             	mov    %rax,%rdi
    100019cb:	e8 88 08 00 00       	callq  10002258 <execute_call>
    100019d0:	48 8b 45 b0          	mov    -0x50(%rbp),%rax
    100019d4:	48 89 c7             	mov    %rax,%rdi
    100019d7:	e8 9b 04 00 00       	callq  10001e77 <handle_completion>
    100019dc:	e9 94 f9 ff ff       	jmpq   10001375 <execute_one+0x68>
    100019e1:	8b 05 1d e6 13 01    	mov    0x113e61d(%rip),%eax        # 11140004 <flag_inject_fault>
    100019e7:	85 c0                	test   %eax,%eax
    100019e9:	75 34                	jne    10001a1f <execute_one+0x712>
    100019eb:	83 7d fc 00          	cmpl   $0x0,-0x4(%rbp)
    100019ef:	75 2e                	jne    10001a1f <execute_one+0x712>
    100019f1:	8b 05 11 e6 13 01    	mov    0x113e611(%rip),%eax        # 11140008 <collide>
    100019f7:	85 c0                	test   %eax,%eax
    100019f9:	75 24                	jne    10001a1f <execute_one+0x712>
    100019fb:	bf e9 69 00 10       	mov    $0x100069e9,%edi
    10001a00:	b8 00 00 00 00       	mov    $0x0,%eax
    10001a05:	e8 92 e8 ff ff       	callq  1000029c <debug>
    10001a0a:	c7 45 fc 01 00 00 00 	movl   $0x1,-0x4(%rbp)
    10001a11:	8b 45 fc             	mov    -0x4(%rbp),%eax
    10001a14:	89 05 ee e5 13 01    	mov    %eax,0x113e5ee(%rip)        # 11140008 <collide>
    10001a1a:	e9 2a f9 ff ff       	jmpq   10001349 <execute_one+0x3c>
    10001a1f:	90                   	nop
    10001a20:	c9                   	leaveq 
    10001a21:	c3                   	retq   

0000000010001a22 <schedule_call>:
    10001a22:	55                   	push   %rbp
    10001a23:	48 89 e5             	mov    %rsp,%rbp
    10001a26:	41 54                	push   %r12
    10001a28:	53                   	push   %rbx
    10001a29:	48 83 ec 50          	sub    $0x50,%rsp
    10001a2d:	89 7d cc             	mov    %edi,-0x34(%rbp)
    10001a30:	89 75 c8             	mov    %esi,-0x38(%rbp)
    10001a33:	89 55 c4             	mov    %edx,-0x3c(%rbp)
    10001a36:	48 89 4d b8          	mov    %rcx,-0x48(%rbp)
    10001a3a:	4c 89 45 b0          	mov    %r8,-0x50(%rbp)
    10001a3e:	4c 89 4d a8          	mov    %r9,-0x58(%rbp)
    10001a42:	c7 45 ec 00 00 00 00 	movl   $0x0,-0x14(%rbp)
    10001a49:	eb 70                	jmp    10001abb <schedule_call+0x99>
    10001a4b:	8b 45 ec             	mov    -0x14(%rbp),%eax
    10001a4e:	48 63 d0             	movslq %eax,%rdx
    10001a51:	48 89 d0             	mov    %rdx,%rax
    10001a54:	48 c1 e0 02          	shl    $0x2,%rax
    10001a58:	48 01 d0             	add    %rdx,%rax
    10001a5b:	48 01 c0             	add    %rax,%rax
    10001a5e:	48 01 d0             	add    %rdx,%rax
    10001a61:	48 c1 e0 04          	shl    $0x4,%rax
    10001a65:	48 05 00 00 13 10    	add    $0x10130000,%rax
    10001a6b:	48 89 45 e0          	mov    %rax,-0x20(%rbp)
    10001a6f:	48 8b 45 e0          	mov    -0x20(%rbp),%rax
    10001a73:	8b 00                	mov    (%rax),%eax
    10001a75:	85 c0                	test   %eax,%eax
    10001a77:	75 11                	jne    10001a8a <schedule_call+0x68>
    10001a79:	8b 55 ec             	mov    -0x14(%rbp),%edx
    10001a7c:	48 8b 45 e0          	mov    -0x20(%rbp),%rax
    10001a80:	89 d6                	mov    %edx,%esi
    10001a82:	48 89 c7             	mov    %rax,%rdi
    10001a85:	e8 6d 07 00 00       	callq  100021f7 <thread_create>
    10001a8a:	48 8b 45 e0          	mov    -0x20(%rbp),%rax
    10001a8e:	48 83 c0 24          	add    $0x24,%rax
    10001a92:	48 89 c7             	mov    %rax,%rdi
    10001a95:	e8 7c f4 ff ff       	callq  10000f16 <event_isset>
    10001a9a:	85 c0                	test   %eax,%eax
    10001a9c:	74 19                	je     10001ab7 <schedule_call+0x95>
    10001a9e:	48 8b 45 e0          	mov    -0x20(%rbp),%rax
    10001aa2:	8b 40 3c             	mov    0x3c(%rax),%eax
    10001aa5:	85 c0                	test   %eax,%eax
    10001aa7:	75 1a                	jne    10001ac3 <schedule_call+0xa1>
    10001aa9:	48 8b 45 e0          	mov    -0x20(%rbp),%rax
    10001aad:	48 89 c7             	mov    %rax,%rdi
    10001ab0:	e8 c2 03 00 00       	callq  10001e77 <handle_completion>
    10001ab5:	eb 0c                	jmp    10001ac3 <schedule_call+0xa1>
    10001ab7:	83 45 ec 01          	addl   $0x1,-0x14(%rbp)
    10001abb:	83 7d ec 0f          	cmpl   $0xf,-0x14(%rbp)
    10001abf:	7e 8a                	jle    10001a4b <schedule_call+0x29>
    10001ac1:	eb 01                	jmp    10001ac4 <schedule_call+0xa2>
    10001ac3:	90                   	nop
    10001ac4:	83 7d ec 10          	cmpl   $0x10,-0x14(%rbp)
    10001ac8:	75 0f                	jne    10001ad9 <schedule_call+0xb7>
    10001aca:	bf fc 69 00 10       	mov    $0x100069fc,%edi
    10001acf:	b8 00 00 00 00       	mov    $0x0,%eax
    10001ad4:	e8 ee e6 ff ff       	callq  100001c7 <exitf>
    10001ad9:	8b 45 ec             	mov    -0x14(%rbp),%eax
    10001adc:	48 63 d0             	movslq %eax,%rdx
    10001adf:	48 89 d0             	mov    %rdx,%rax
    10001ae2:	48 c1 e0 02          	shl    $0x2,%rax
    10001ae6:	48 01 d0             	add    %rdx,%rax
    10001ae9:	48 01 c0             	add    %rax,%rax
    10001aec:	48 01 d0             	add    %rdx,%rax
    10001aef:	48 c1 e0 04          	shl    $0x4,%rax
    10001af3:	48 05 00 00 13 10    	add    $0x10130000,%rax
    10001af9:	48 89 45 d8          	mov    %rax,-0x28(%rbp)
    10001afd:	48 8b 45 d8          	mov    -0x28(%rbp),%rax
    10001b01:	8b 48 04             	mov    0x4(%rax),%ecx
    10001b04:	8b 45 c8             	mov    -0x38(%rbp),%eax
    10001b07:	48 63 d0             	movslq %eax,%rdx
    10001b0a:	48 89 d0             	mov    %rdx,%rax
    10001b0d:	48 01 c0             	add    %rax,%rax
    10001b10:	48 01 d0             	add    %rdx,%rax
    10001b13:	48 c1 e0 03          	shl    $0x3,%rax
    10001b17:	48 05 20 80 00 10    	add    $0x10008020,%rax
    10001b1d:	48 8b 10             	mov    (%rax),%rdx
    10001b20:	8b 45 cc             	mov    -0x34(%rbp),%eax
    10001b23:	89 c6                	mov    %eax,%esi
    10001b25:	bf 10 6a 00 10       	mov    $0x10006a10,%edi
    10001b2a:	b8 00 00 00 00       	mov    $0x0,%eax
    10001b2f:	e8 68 e7 ff ff       	callq  1000029c <debug>
    10001b34:	48 8b 45 d8          	mov    -0x28(%rbp),%rax
    10001b38:	48 83 c0 20          	add    $0x20,%rax
    10001b3c:	48 89 c7             	mov    %rax,%rdi
    10001b3f:	e8 d2 f3 ff ff       	callq  10000f16 <event_isset>
    10001b44:	85 c0                	test   %eax,%eax
    10001b46:	75 1f                	jne    10001b67 <schedule_call+0x145>
    10001b48:	48 8b 45 d8          	mov    -0x28(%rbp),%rax
    10001b4c:	48 83 c0 24          	add    $0x24,%rax
    10001b50:	48 89 c7             	mov    %rax,%rdi
    10001b53:	e8 be f3 ff ff       	callq  10000f16 <event_isset>
    10001b58:	85 c0                	test   %eax,%eax
    10001b5a:	74 0b                	je     10001b67 <schedule_call+0x145>
    10001b5c:	48 8b 45 d8          	mov    -0x28(%rbp),%rax
    10001b60:	8b 40 3c             	mov    0x3c(%rax),%eax
    10001b63:	85 c0                	test   %eax,%eax
    10001b65:	75 40                	jne    10001ba7 <schedule_call+0x185>
    10001b67:	48 8b 45 d8          	mov    -0x28(%rbp),%rax
    10001b6b:	8b 58 3c             	mov    0x3c(%rax),%ebx
    10001b6e:	48 8b 45 d8          	mov    -0x28(%rbp),%rax
    10001b72:	48 83 c0 24          	add    $0x24,%rax
    10001b76:	48 89 c7             	mov    %rax,%rdi
    10001b79:	e8 98 f3 ff ff       	callq  10000f16 <event_isset>
    10001b7e:	41 89 c4             	mov    %eax,%r12d
    10001b81:	48 8b 45 d8          	mov    -0x28(%rbp),%rax
    10001b85:	48 83 c0 20          	add    $0x20,%rax
    10001b89:	48 89 c7             	mov    %rax,%rdi
    10001b8c:	e8 85 f3 ff ff       	callq  10000f16 <event_isset>
    10001b91:	89 d9                	mov    %ebx,%ecx
    10001b93:	44 89 e2             	mov    %r12d,%edx
    10001b96:	89 c6                	mov    %eax,%esi
    10001b98:	bf 38 6a 00 10       	mov    $0x10006a38,%edi
    10001b9d:	b8 00 00 00 00       	mov    $0x0,%eax
    10001ba2:	e8 8a e4 ff ff       	callq  10000031 <fail>
    10001ba7:	48 8b 45 d8          	mov    -0x28(%rbp),%rax
    10001bab:	8b 55 c4             	mov    -0x3c(%rbp),%edx
    10001bae:	89 50 38             	mov    %edx,0x38(%rax)
    10001bb1:	48 8b 45 d8          	mov    -0x28(%rbp),%rax
    10001bb5:	48 8b 55 10          	mov    0x10(%rbp),%rdx
    10001bb9:	48 89 50 28          	mov    %rdx,0x28(%rax)
    10001bbd:	48 8b 45 d8          	mov    -0x28(%rbp),%rax
    10001bc1:	48 8b 55 b8          	mov    -0x48(%rbp),%rdx
    10001bc5:	48 89 50 30          	mov    %rdx,0x30(%rax)
    10001bc9:	48 8b 45 d8          	mov    -0x28(%rbp),%rax
    10001bcd:	48 83 c0 24          	add    $0x24,%rax
    10001bd1:	48 89 c7             	mov    %rax,%rdi
    10001bd4:	e8 da f2 ff ff       	callq  10000eb3 <event_reset>
    10001bd9:	48 8b 45 d8          	mov    -0x28(%rbp),%rax
    10001bdd:	c7 40 3c 00 00 00 00 	movl   $0x0,0x3c(%rax)
    10001be4:	48 8b 45 d8          	mov    -0x28(%rbp),%rax
    10001be8:	8b 55 cc             	mov    -0x34(%rbp),%edx
    10001beb:	89 50 40             	mov    %edx,0x40(%rax)
    10001bee:	48 8b 45 d8          	mov    -0x28(%rbp),%rax
    10001bf2:	8b 55 c8             	mov    -0x38(%rbp),%edx
    10001bf5:	89 50 44             	mov    %edx,0x44(%rax)
    10001bf8:	48 8b 45 b0          	mov    -0x50(%rbp),%rax
    10001bfc:	89 c2                	mov    %eax,%edx
    10001bfe:	48 8b 45 d8          	mov    -0x28(%rbp),%rax
    10001c02:	89 50 48             	mov    %edx,0x48(%rax)
    10001c05:	c7 45 e8 00 00 00 00 	movl   $0x0,-0x18(%rbp)
    10001c0c:	eb 30                	jmp    10001c3e <schedule_call+0x21c>
    10001c0e:	8b 45 e8             	mov    -0x18(%rbp),%eax
    10001c11:	48 98                	cltq   
    10001c13:	48 8d 14 c5 00 00 00 	lea    0x0(,%rax,8),%rdx
    10001c1a:	00 
    10001c1b:	48 8b 45 a8          	mov    -0x58(%rbp),%rax
    10001c1f:	48 01 d0             	add    %rdx,%rax
    10001c22:	48 8b 00             	mov    (%rax),%rax
    10001c25:	48 89 c1             	mov    %rax,%rcx
    10001c28:	48 8b 45 d8          	mov    -0x28(%rbp),%rax
    10001c2c:	8b 55 e8             	mov    -0x18(%rbp),%edx
    10001c2f:	48 63 d2             	movslq %edx,%rdx
    10001c32:	48 83 c2 0a          	add    $0xa,%rdx
    10001c36:	48 89 0c d0          	mov    %rcx,(%rax,%rdx,8)
    10001c3a:	83 45 e8 01          	addl   $0x1,-0x18(%rbp)
    10001c3e:	83 7d e8 08          	cmpl   $0x8,-0x18(%rbp)
    10001c42:	7e ca                	jle    10001c0e <schedule_call+0x1ec>
    10001c44:	48 8b 45 d8          	mov    -0x28(%rbp),%rax
    10001c48:	48 83 c0 20          	add    $0x20,%rax
    10001c4c:	48 89 c7             	mov    %rax,%rdi
    10001c4f:	e8 82 f2 ff ff       	callq  10000ed6 <event_set>
    10001c54:	8b 05 c6 e3 01 00    	mov    0x1e3c6(%rip),%eax        # 10020020 <running>
    10001c5a:	83 c0 01             	add    $0x1,%eax
    10001c5d:	89 05 bd e3 01 00    	mov    %eax,0x1e3bd(%rip)        # 10020020 <running>
    10001c63:	48 8b 45 d8          	mov    -0x28(%rbp),%rax
    10001c67:	48 83 c4 50          	add    $0x50,%rsp
    10001c6b:	5b                   	pop    %rbx
    10001c6c:	41 5c                	pop    %r12
    10001c6e:	5d                   	pop    %rbp
    10001c6f:	c3                   	retq   

0000000010001c70 <write_coverage_signal>:
    10001c70:	55                   	push   %rbp
    10001c71:	48 89 e5             	mov    %rsp,%rbp
    10001c74:	48 83 c4 80          	add    $0xffffffffffffff80,%rsp
    10001c78:	48 89 7d 98          	mov    %rdi,-0x68(%rbp)
    10001c7c:	48 89 75 90          	mov    %rsi,-0x70(%rbp)
    10001c80:	48 89 55 88          	mov    %rdx,-0x78(%rbp)
    10001c84:	48 8b 45 98          	mov    -0x68(%rbp),%rax
    10001c88:	8b 80 a4 00 00 00    	mov    0xa4(%rax),%eax
    10001c8e:	89 c6                	mov    %eax,%esi
    10001c90:	bf 78 6a 00 10       	mov    $0x10006a78,%edi
    10001c95:	b8 00 00 00 00       	mov    $0x0,%eax
    10001c9a:	e8 fd e5 ff ff       	callq  1000029c <debug>
    10001c9f:	48 8b 45 98          	mov    -0x68(%rbp),%rax
    10001ca3:	48 8b 40 08          	mov    0x8(%rax),%rax
    10001ca7:	48 83 c0 08          	add    $0x8,%rax
    10001cab:	48 89 45 c0          	mov    %rax,-0x40(%rbp)
    10001caf:	c7 45 fc 00 00 00 00 	movl   $0x0,-0x4(%rbp)
    10001cb6:	c7 45 f8 00 00 00 00 	movl   $0x0,-0x8(%rbp)
    10001cbd:	c7 45 f4 00 00 00 00 	movl   $0x0,-0xc(%rbp)
    10001cc4:	eb 51                	jmp    10001d17 <write_coverage_signal+0xa7>
    10001cc6:	8b 45 f4             	mov    -0xc(%rbp),%eax
    10001cc9:	48 8d 14 c5 00 00 00 	lea    0x0(,%rax,8),%rdx
    10001cd0:	00 
    10001cd1:	48 8b 45 c0          	mov    -0x40(%rbp),%rax
    10001cd5:	48 01 d0             	add    %rdx,%rax
    10001cd8:	48 8b 00             	mov    (%rax),%rax
    10001cdb:	89 45 ac             	mov    %eax,-0x54(%rbp)
    10001cde:	8b 45 ac             	mov    -0x54(%rbp),%eax
    10001ce1:	33 45 f8             	xor    -0x8(%rbp),%eax
    10001ce4:	89 45 a8             	mov    %eax,-0x58(%rbp)
    10001ce7:	8b 45 ac             	mov    -0x54(%rbp),%eax
    10001cea:	89 c7                	mov    %eax,%edi
    10001cec:	e8 56 08 00 00       	callq  10002547 <hash>
    10001cf1:	89 45 f8             	mov    %eax,-0x8(%rbp)
    10001cf4:	8b 45 a8             	mov    -0x58(%rbp),%eax
    10001cf7:	89 c7                	mov    %eax,%edi
    10001cf9:	e8 8b 08 00 00       	callq  10002589 <dedup>
    10001cfe:	85 c0                	test   %eax,%eax
    10001d00:	75 10                	jne    10001d12 <write_coverage_signal+0xa2>
    10001d02:	8b 45 a8             	mov    -0x58(%rbp),%eax
    10001d05:	89 c7                	mov    %eax,%edi
    10001d07:	e8 5f 13 00 00       	callq  1000306b <write_output>
    10001d0c:	83 45 fc 01          	addl   $0x1,-0x4(%rbp)
    10001d10:	eb 01                	jmp    10001d13 <write_coverage_signal+0xa3>
    10001d12:	90                   	nop
    10001d13:	83 45 f4 01          	addl   $0x1,-0xc(%rbp)
    10001d17:	48 8b 45 98          	mov    -0x68(%rbp),%rax
    10001d1b:	8b 80 a4 00 00 00    	mov    0xa4(%rax),%eax
    10001d21:	39 45 f4             	cmp    %eax,-0xc(%rbp)
    10001d24:	72 a0                	jb     10001cc6 <write_coverage_signal+0x56>
    10001d26:	48 8b 45 90          	mov    -0x70(%rbp),%rax
    10001d2a:	8b 55 fc             	mov    -0x4(%rbp),%edx
    10001d2d:	89 10                	mov    %edx,(%rax)
    10001d2f:	8b 05 73 21 14 01    	mov    0x1142173(%rip),%eax        # 11143ea8 <flag_collect_cover>
    10001d35:	85 c0                	test   %eax,%eax
    10001d37:	0f 84 37 01 00 00    	je     10001e74 <write_coverage_signal+0x204>
    10001d3d:	48 8b 45 98          	mov    -0x68(%rbp),%rax
    10001d41:	8b 80 a4 00 00 00    	mov    0xa4(%rax),%eax
    10001d47:	89 45 f0             	mov    %eax,-0x10(%rbp)
    10001d4a:	8b 05 f0 62 25 01    	mov    0x12562f0(%rip),%eax        # 11258040 <flag_dedup_cover>
    10001d50:	85 c0                	test   %eax,%eax
    10001d52:	0f 84 e0 00 00 00    	je     10001e38 <write_coverage_signal+0x1c8>
    10001d58:	8b 45 f0             	mov    -0x10(%rbp),%eax
    10001d5b:	48 8d 14 c5 00 00 00 	lea    0x0(,%rax,8),%rdx
    10001d62:	00 
    10001d63:	48 8b 45 c0          	mov    -0x40(%rbp),%rax
    10001d67:	48 01 d0             	add    %rdx,%rax
    10001d6a:	48 89 45 b8          	mov    %rax,-0x48(%rbp)
    10001d6e:	48 8b 45 c0          	mov    -0x40(%rbp),%rax
    10001d72:	48 89 45 e8          	mov    %rax,-0x18(%rbp)
    10001d76:	eb 55                	jmp    10001dcd <write_coverage_signal+0x15d>
    10001d78:	48 8b 45 e8          	mov    -0x18(%rbp),%rax
    10001d7c:	48 89 45 e0          	mov    %rax,-0x20(%rbp)
    10001d80:	eb 3c                	jmp    10001dbe <write_coverage_signal+0x14e>
    10001d82:	48 8b 45 e8          	mov    -0x18(%rbp),%rax
    10001d86:	48 8b 10             	mov    (%rax),%rdx
    10001d89:	48 8b 45 e0          	mov    -0x20(%rbp),%rax
    10001d8d:	48 8b 00             	mov    (%rax),%rax
    10001d90:	48 39 c2             	cmp    %rax,%rdx
    10001d93:	76 24                	jbe    10001db9 <write_coverage_signal+0x149>
    10001d95:	48 8b 45 e8          	mov    -0x18(%rbp),%rax
    10001d99:	48 8b 00             	mov    (%rax),%rax
    10001d9c:	48 89 45 b0          	mov    %rax,-0x50(%rbp)
    10001da0:	48 8b 45 e0          	mov    -0x20(%rbp),%rax
    10001da4:	48 8b 10             	mov    (%rax),%rdx
    10001da7:	48 8b 45 e8          	mov    -0x18(%rbp),%rax
    10001dab:	48 89 10             	mov    %rdx,(%rax)
    10001dae:	48 8b 45 e0          	mov    -0x20(%rbp),%rax
    10001db2:	48 8b 55 b0          	mov    -0x50(%rbp),%rdx
    10001db6:	48 89 10             	mov    %rdx,(%rax)
    10001db9:	48 83 45 e0 08       	addq   $0x8,-0x20(%rbp)
    10001dbe:	48 8b 45 e0          	mov    -0x20(%rbp),%rax
    10001dc2:	48 3b 45 b8          	cmp    -0x48(%rbp),%rax
    10001dc6:	75 ba                	jne    10001d82 <write_coverage_signal+0x112>
    10001dc8:	48 83 45 e8 08       	addq   $0x8,-0x18(%rbp)
    10001dcd:	48 8b 45 e8          	mov    -0x18(%rbp),%rax
    10001dd1:	48 3b 45 b8          	cmp    -0x48(%rbp),%rax
    10001dd5:	75 a1                	jne    10001d78 <write_coverage_signal+0x108>
    10001dd7:	48 8b 45 c0          	mov    -0x40(%rbp),%rax
    10001ddb:	48 89 45 d8          	mov    %rax,-0x28(%rbp)
    10001ddf:	48 8b 45 c0          	mov    -0x40(%rbp),%rax
    10001de3:	48 89 45 d0          	mov    %rax,-0x30(%rbp)
    10001de7:	eb 2b                	jmp    10001e14 <write_coverage_signal+0x1a4>
    10001de9:	48 8b 45 d0          	mov    -0x30(%rbp),%rax
    10001ded:	48 8b 10             	mov    (%rax),%rdx
    10001df0:	48 8b 45 d8          	mov    -0x28(%rbp),%rax
    10001df4:	48 8b 00             	mov    (%rax),%rax
    10001df7:	48 39 c2             	cmp    %rax,%rdx
    10001dfa:	74 13                	je     10001e0f <write_coverage_signal+0x19f>
    10001dfc:	48 83 45 d8 08       	addq   $0x8,-0x28(%rbp)
    10001e01:	48 8b 45 d0          	mov    -0x30(%rbp),%rax
    10001e05:	48 8b 10             	mov    (%rax),%rdx
    10001e08:	48 8b 45 d8          	mov    -0x28(%rbp),%rax
    10001e0c:	48 89 10             	mov    %rdx,(%rax)
    10001e0f:	48 83 45 d0 08       	addq   $0x8,-0x30(%rbp)
    10001e14:	48 8b 45 d0          	mov    -0x30(%rbp),%rax
    10001e18:	48 3b 45 b8          	cmp    -0x48(%rbp),%rax
    10001e1c:	75 cb                	jne    10001de9 <write_coverage_signal+0x179>
    10001e1e:	48 83 45 d8 08       	addq   $0x8,-0x28(%rbp)
    10001e23:	48 8b 55 d8          	mov    -0x28(%rbp),%rdx
    10001e27:	48 8b 45 c0          	mov    -0x40(%rbp),%rax
    10001e2b:	48 29 c2             	sub    %rax,%rdx
    10001e2e:	48 89 d0             	mov    %rdx,%rax
    10001e31:	48 c1 f8 03          	sar    $0x3,%rax
    10001e35:	89 45 f0             	mov    %eax,-0x10(%rbp)
    10001e38:	c7 45 cc 00 00 00 00 	movl   $0x0,-0x34(%rbp)
    10001e3f:	eb 20                	jmp    10001e61 <write_coverage_signal+0x1f1>
    10001e41:	8b 45 cc             	mov    -0x34(%rbp),%eax
    10001e44:	48 8d 14 c5 00 00 00 	lea    0x0(,%rax,8),%rdx
    10001e4b:	00 
    10001e4c:	48 8b 45 c0          	mov    -0x40(%rbp),%rax
    10001e50:	48 01 d0             	add    %rdx,%rax
    10001e53:	48 8b 00             	mov    (%rax),%rax
    10001e56:	89 c7                	mov    %eax,%edi
    10001e58:	e8 0e 12 00 00       	callq  1000306b <write_output>
    10001e5d:	83 45 cc 01          	addl   $0x1,-0x34(%rbp)
    10001e61:	8b 45 cc             	mov    -0x34(%rbp),%eax
    10001e64:	3b 45 f0             	cmp    -0x10(%rbp),%eax
    10001e67:	72 d8                	jb     10001e41 <write_coverage_signal+0x1d1>
    10001e69:	48 8b 45 88          	mov    -0x78(%rbp),%rax
    10001e6d:	8b 55 f0             	mov    -0x10(%rbp),%edx
    10001e70:	89 10                	mov    %edx,(%rax)
    10001e72:	eb 01                	jmp    10001e75 <write_coverage_signal+0x205>
    10001e74:	90                   	nop
    10001e75:	c9                   	leaveq 
    10001e76:	c3                   	retq   

0000000010001e77 <handle_completion>:
    10001e77:	55                   	push   %rbp
    10001e78:	48 89 e5             	mov    %rsp,%rbp
    10001e7b:	41 54                	push   %r12
    10001e7d:	53                   	push   %rbx
    10001e7e:	48 83 ec 60          	sub    $0x60,%rsp
    10001e82:	48 89 7d 98          	mov    %rdi,-0x68(%rbp)
    10001e86:	48 8b 45 98          	mov    -0x68(%rbp),%rax
    10001e8a:	8b 48 04             	mov    0x4(%rax),%ecx
    10001e8d:	48 8b 45 98          	mov    -0x68(%rbp),%rax
    10001e91:	8b 40 44             	mov    0x44(%rax),%eax
    10001e94:	48 63 d0             	movslq %eax,%rdx
    10001e97:	48 89 d0             	mov    %rdx,%rax
    10001e9a:	48 01 c0             	add    %rax,%rax
    10001e9d:	48 01 d0             	add    %rdx,%rax
    10001ea0:	48 c1 e0 03          	shl    $0x3,%rax
    10001ea4:	48 05 20 80 00 10    	add    $0x10008020,%rax
    10001eaa:	48 8b 10             	mov    (%rax),%rdx
    10001ead:	48 8b 45 98          	mov    -0x68(%rbp),%rax
    10001eb1:	8b 40 40             	mov    0x40(%rax),%eax
    10001eb4:	89 c6                	mov    %eax,%esi
    10001eb6:	bf a8 6a 00 10       	mov    $0x10006aa8,%edi
    10001ebb:	b8 00 00 00 00       	mov    $0x0,%eax
    10001ec0:	e8 d7 e3 ff ff       	callq  1000029c <debug>
    10001ec5:	48 8b 45 98          	mov    -0x68(%rbp),%rax
    10001ec9:	48 83 c0 20          	add    $0x20,%rax
    10001ecd:	48 89 c7             	mov    %rax,%rdi
    10001ed0:	e8 41 f0 ff ff       	callq  10000f16 <event_isset>
    10001ed5:	85 c0                	test   %eax,%eax
    10001ed7:	75 1f                	jne    10001ef8 <handle_completion+0x81>
    10001ed9:	48 8b 45 98          	mov    -0x68(%rbp),%rax
    10001edd:	48 83 c0 24          	add    $0x24,%rax
    10001ee1:	48 89 c7             	mov    %rax,%rdi
    10001ee4:	e8 2d f0 ff ff       	callq  10000f16 <event_isset>
    10001ee9:	85 c0                	test   %eax,%eax
    10001eeb:	74 0b                	je     10001ef8 <handle_completion+0x81>
    10001eed:	48 8b 45 98          	mov    -0x68(%rbp),%rax
    10001ef1:	8b 40 3c             	mov    0x3c(%rax),%eax
    10001ef4:	85 c0                	test   %eax,%eax
    10001ef6:	74 40                	je     10001f38 <handle_completion+0xc1>
    10001ef8:	48 8b 45 98          	mov    -0x68(%rbp),%rax
    10001efc:	8b 58 3c             	mov    0x3c(%rax),%ebx
    10001eff:	48 8b 45 98          	mov    -0x68(%rbp),%rax
    10001f03:	48 83 c0 24          	add    $0x24,%rax
    10001f07:	48 89 c7             	mov    %rax,%rdi
    10001f0a:	e8 07 f0 ff ff       	callq  10000f16 <event_isset>
    10001f0f:	41 89 c4             	mov    %eax,%r12d
    10001f12:	48 8b 45 98          	mov    -0x68(%rbp),%rax
    10001f16:	48 83 c0 20          	add    $0x20,%rax
    10001f1a:	48 89 c7             	mov    %rax,%rdi
    10001f1d:	e8 f4 ef ff ff       	callq  10000f16 <event_isset>
    10001f22:	89 d9                	mov    %ebx,%ecx
    10001f24:	44 89 e2             	mov    %r12d,%edx
    10001f27:	89 c6                	mov    %eax,%esi
    10001f29:	bf d8 6a 00 10       	mov    $0x10006ad8,%edi
    10001f2e:	b8 00 00 00 00       	mov    $0x0,%eax
    10001f33:	e8 f9 e0 ff ff       	callq  10000031 <fail>
    10001f38:	48 8b 45 98          	mov    -0x68(%rbp),%rax
    10001f3c:	48 8b 80 98 00 00 00 	mov    0x98(%rax),%rax
    10001f43:	48 85 c0             	test   %rax,%rax
    10001f46:	0f 88 7c 01 00 00    	js     100020c8 <handle_completion+0x251>
    10001f4c:	48 8b 45 98          	mov    -0x68(%rbp),%rax
    10001f50:	48 8b 40 30          	mov    0x30(%rax),%rax
    10001f54:	48 c7 c2 ff ff ff ff 	mov    $0xffffffffffffffff,%rdx
    10001f5b:	48 39 d0             	cmp    %rdx,%rax
    10001f5e:	74 62                	je     10001fc2 <handle_completion+0x14b>
    10001f60:	48 8b 45 98          	mov    -0x68(%rbp),%rax
    10001f64:	48 8b 40 30          	mov    0x30(%rax),%rax
    10001f68:	48 3d e7 03 00 00    	cmp    $0x3e7,%rax
    10001f6e:	76 1a                	jbe    10001f8a <handle_completion+0x113>
    10001f70:	48 8b 45 98          	mov    -0x68(%rbp),%rax
    10001f74:	48 8b 40 30          	mov    0x30(%rax),%rax
    10001f78:	48 89 c6             	mov    %rax,%rsi
    10001f7b:	bf 18 6b 00 10       	mov    $0x10006b18,%edi
    10001f80:	b8 00 00 00 00       	mov    $0x0,%eax
    10001f85:	e8 a7 e0 ff ff       	callq  10000031 <fail>
    10001f8a:	48 8b 45 98          	mov    -0x68(%rbp),%rax
    10001f8e:	48 8b 40 30          	mov    0x30(%rax),%rax
    10001f92:	48 c1 e0 04          	shl    $0x4,%rax
    10001f96:	48 05 20 00 14 11    	add    $0x11140020,%rax
    10001f9c:	c7 00 01 00 00 00    	movl   $0x1,(%rax)
    10001fa2:	48 8b 45 98          	mov    -0x68(%rbp),%rax
    10001fa6:	48 8b 90 98 00 00 00 	mov    0x98(%rax),%rdx
    10001fad:	48 8b 45 98          	mov    -0x68(%rbp),%rax
    10001fb1:	48 8b 40 30          	mov    0x30(%rax),%rax
    10001fb5:	48 c1 e0 04          	shl    $0x4,%rax
    10001fb9:	48 05 28 00 14 11    	add    $0x11140028,%rax
    10001fbf:	48 89 10             	mov    %rdx,(%rax)
    10001fc2:	c7 45 ec 00 00 00 00 	movl   $0x0,-0x14(%rbp)
    10001fc9:	e9 f0 00 00 00       	jmpq   100020be <handle_completion+0x247>
    10001fce:	48 8b 45 98          	mov    -0x68(%rbp),%rax
    10001fd2:	48 83 c0 28          	add    $0x28,%rax
    10001fd6:	48 89 c7             	mov    %rax,%rdi
    10001fd9:	e8 f0 0c 00 00       	callq  10002cce <read_input>
    10001fde:	48 89 45 e0          	mov    %rax,-0x20(%rbp)
    10001fe2:	48 8b 45 e0          	mov    -0x20(%rbp),%rax
    10001fe6:	48 83 f8 fd          	cmp    $0xfffffffffffffffd,%rax
    10001fea:	0f 85 c6 00 00 00    	jne    100020b6 <handle_completion+0x23f>
    10001ff0:	48 8b 45 98          	mov    -0x68(%rbp),%rax
    10001ff4:	48 83 c0 28          	add    $0x28,%rax
    10001ff8:	48 89 c7             	mov    %rax,%rdi
    10001ffb:	e8 ce 0c 00 00       	callq  10002cce <read_input>
    10002000:	48 89 45 d8          	mov    %rax,-0x28(%rbp)
    10002004:	48 81 7d d8 e7 03 00 	cmpq   $0x3e7,-0x28(%rbp)
    1000200b:	00 
    1000200c:	76 16                	jbe    10002024 <handle_completion+0x1ad>
    1000200e:	48 8b 45 d8          	mov    -0x28(%rbp),%rax
    10002012:	48 89 c6             	mov    %rax,%rsi
    10002015:	bf 18 6b 00 10       	mov    $0x10006b18,%edi
    1000201a:	b8 00 00 00 00       	mov    $0x0,%eax
    1000201f:	e8 0d e0 ff ff       	callq  10000031 <fail>
    10002024:	48 8b 45 98          	mov    -0x68(%rbp),%rax
    10002028:	48 83 c0 28          	add    $0x28,%rax
    1000202c:	48 89 c7             	mov    %rax,%rdi
    1000202f:	e8 9a 0c 00 00       	callq  10002cce <read_input>
    10002034:	48 89 45 d0          	mov    %rax,-0x30(%rbp)
    10002038:	48 8b 45 98          	mov    -0x68(%rbp),%rax
    1000203c:	48 83 c0 28          	add    $0x28,%rax
    10002040:	48 89 c7             	mov    %rax,%rdi
    10002043:	e8 86 0c 00 00       	callq  10002cce <read_input>
    10002048:	48 89 45 c8          	mov    %rax,-0x38(%rbp)
    1000204c:	48 c7 45 a0 00 00 00 	movq   $0x0,-0x60(%rbp)
    10002053:	00 
    10002054:	48 8d 55 a0          	lea    -0x60(%rbp),%rdx
    10002058:	48 8b 4d c8          	mov    -0x38(%rbp),%rcx
    1000205c:	48 8b 45 d0          	mov    -0x30(%rbp),%rax
    10002060:	48 89 ce             	mov    %rcx,%rsi
    10002063:	48 89 c7             	mov    %rax,%rdi
    10002066:	e8 3d 08 00 00       	callq  100028a8 <copyout>
    1000206b:	85 c0                	test   %eax,%eax
    1000206d:	74 2a                	je     10002099 <handle_completion+0x222>
    1000206f:	48 8b 45 d8          	mov    -0x28(%rbp),%rax
    10002073:	48 c1 e0 04          	shl    $0x4,%rax
    10002077:	48 05 20 00 14 11    	add    $0x11140020,%rax
    1000207d:	c7 00 01 00 00 00    	movl   $0x1,(%rax)
    10002083:	48 8b 45 a0          	mov    -0x60(%rbp),%rax
    10002087:	48 8b 55 d8          	mov    -0x28(%rbp),%rdx
    1000208b:	48 c1 e2 04          	shl    $0x4,%rdx
    1000208f:	48 81 c2 28 00 14 11 	add    $0x11140028,%rdx
    10002096:	48 89 02             	mov    %rax,(%rdx)
    10002099:	48 8b 45 a0          	mov    -0x60(%rbp),%rax
    1000209d:	48 8b 55 d0          	mov    -0x30(%rbp),%rdx
    100020a1:	48 89 c6             	mov    %rax,%rsi
    100020a4:	bf 3f 6b 00 10       	mov    $0x10006b3f,%edi
    100020a9:	b8 00 00 00 00       	mov    $0x0,%eax
    100020ae:	e8 e9 e1 ff ff       	callq  1000029c <debug>
    100020b3:	90                   	nop
    100020b4:	eb 08                	jmp    100020be <handle_completion+0x247>
    100020b6:	c7 45 ec 01 00 00 00 	movl   $0x1,-0x14(%rbp)
    100020bd:	90                   	nop
    100020be:	83 7d ec 00          	cmpl   $0x0,-0x14(%rbp)
    100020c2:	0f 84 06 ff ff ff    	je     10001fce <handle_completion+0x157>
    100020c8:	8b 05 3a df 13 01    	mov    0x113df3a(%rip),%eax        # 11140008 <collide>
    100020ce:	85 c0                	test   %eax,%eax
    100020d0:	0f 85 fd 00 00 00    	jne    100021d3 <handle_completion+0x35c>
    100020d6:	48 8b 45 98          	mov    -0x68(%rbp),%rax
    100020da:	8b 40 38             	mov    0x38(%rax),%eax
    100020dd:	85 c0                	test   %eax,%eax
    100020df:	0f 85 ee 00 00 00    	jne    100021d3 <handle_completion+0x35c>
    100020e5:	48 8b 45 98          	mov    -0x68(%rbp),%rax
    100020e9:	8b 40 40             	mov    0x40(%rax),%eax
    100020ec:	89 c7                	mov    %eax,%edi
    100020ee:	e8 78 0f 00 00       	callq  1000306b <write_output>
    100020f3:	48 8b 45 98          	mov    -0x68(%rbp),%rax
    100020f7:	8b 40 44             	mov    0x44(%rax),%eax
    100020fa:	89 c7                	mov    %eax,%edi
    100020fc:	e8 6a 0f 00 00       	callq  1000306b <write_output>
    10002101:	48 8b 45 98          	mov    -0x68(%rbp),%rax
    10002105:	48 8b 80 98 00 00 00 	mov    0x98(%rax),%rax
    1000210c:	89 45 c4             	mov    %eax,-0x3c(%rbp)
    1000210f:	8b 45 c4             	mov    -0x3c(%rbp),%eax
    10002112:	89 c7                	mov    %eax,%edi
    10002114:	e8 52 0f 00 00       	callq  1000306b <write_output>
    10002119:	48 8b 45 98          	mov    -0x68(%rbp),%rax
    1000211d:	8b 80 a8 00 00 00    	mov    0xa8(%rax),%eax
    10002123:	89 c7                	mov    %eax,%edi
    10002125:	e8 41 0f 00 00       	callq  1000306b <write_output>
    1000212a:	bf 00 00 00 00       	mov    $0x0,%edi
    1000212f:	e8 37 0f 00 00       	callq  1000306b <write_output>
    10002134:	48 89 45 b8          	mov    %rax,-0x48(%rbp)
    10002138:	bf 00 00 00 00       	mov    $0x0,%edi
    1000213d:	e8 29 0f 00 00       	callq  1000306b <write_output>
    10002142:	48 89 45 b0          	mov    %rax,-0x50(%rbp)
    10002146:	bf 00 00 00 00       	mov    $0x0,%edi
    1000214b:	e8 1b 0f 00 00       	callq  1000306b <write_output>
    10002150:	48 89 45 a8          	mov    %rax,-0x58(%rbp)
    10002154:	8b 05 a6 de 24 01    	mov    0x124dea6(%rip),%eax        # 11250000 <flag_collect_comps>
    1000215a:	85 c0                	test   %eax,%eax
    1000215c:	75 17                	jne    10002175 <handle_completion+0x2fe>
    1000215e:	48 8b 55 b0          	mov    -0x50(%rbp),%rdx
    10002162:	48 8b 4d b8          	mov    -0x48(%rbp),%rcx
    10002166:	48 8b 45 98          	mov    -0x68(%rbp),%rax
    1000216a:	48 89 ce             	mov    %rcx,%rsi
    1000216d:	48 89 c7             	mov    %rax,%rdi
    10002170:	e8 fb fa ff ff       	callq  10001c70 <write_coverage_signal>
    10002175:	48 8b 45 a8          	mov    -0x58(%rbp),%rax
    10002179:	8b 38                	mov    (%rax),%edi
    1000217b:	48 8b 45 b0          	mov    -0x50(%rbp),%rax
    1000217f:	8b 30                	mov    (%rax),%esi
    10002181:	48 8b 45 b8          	mov    -0x48(%rbp),%rax
    10002185:	44 8b 08             	mov    (%rax),%r9d
    10002188:	48 8b 45 98          	mov    -0x68(%rbp),%rax
    1000218c:	8b 48 44             	mov    0x44(%rax),%ecx
    1000218f:	48 8b 45 98          	mov    -0x68(%rbp),%rax
    10002193:	8b 50 40             	mov    0x40(%rax),%edx
    10002196:	8b 05 64 de 13 01    	mov    0x113de64(%rip),%eax        # 11140000 <completed>
    1000219c:	44 8b 45 c4          	mov    -0x3c(%rbp),%r8d
    100021a0:	57                   	push   %rdi
    100021a1:	56                   	push   %rsi
    100021a2:	89 c6                	mov    %eax,%esi
    100021a4:	bf 58 6b 00 10       	mov    $0x10006b58,%edi
    100021a9:	b8 00 00 00 00       	mov    $0x0,%eax
    100021ae:	e8 e9 e0 ff ff       	callq  1000029c <debug>
    100021b3:	48 83 c4 10          	add    $0x10,%rsp
    100021b7:	8b 05 43 de 13 01    	mov    0x113de43(%rip),%eax        # 11140000 <completed>
    100021bd:	83 c0 01             	add    $0x1,%eax
    100021c0:	89 05 3a de 13 01    	mov    %eax,0x113de3a(%rip)        # 11140000 <completed>
    100021c6:	8b 05 34 de 13 01    	mov    0x113de34(%rip),%eax        # 11140000 <completed>
    100021cc:	89 c7                	mov    %eax,%edi
    100021ce:	e8 10 0f 00 00       	callq  100030e3 <write_completed>
    100021d3:	48 8b 45 98          	mov    -0x68(%rbp),%rax
    100021d7:	c7 40 3c 01 00 00 00 	movl   $0x1,0x3c(%rax)
    100021de:	8b 05 3c de 01 00    	mov    0x1de3c(%rip),%eax        # 10020020 <running>
    100021e4:	83 e8 01             	sub    $0x1,%eax
    100021e7:	89 05 33 de 01 00    	mov    %eax,0x1de33(%rip)        # 10020020 <running>
    100021ed:	90                   	nop
    100021ee:	48 8d 65 f0          	lea    -0x10(%rbp),%rsp
    100021f2:	5b                   	pop    %rbx
    100021f3:	41 5c                	pop    %r12
    100021f5:	5d                   	pop    %rbp
    100021f6:	c3                   	retq   

00000000100021f7 <thread_create>:
    100021f7:	55                   	push   %rbp
    100021f8:	48 89 e5             	mov    %rsp,%rbp
    100021fb:	48 83 ec 10          	sub    $0x10,%rsp
    100021ff:	48 89 7d f8          	mov    %rdi,-0x8(%rbp)
    10002203:	89 75 f4             	mov    %esi,-0xc(%rbp)
    10002206:	48 8b 45 f8          	mov    -0x8(%rbp),%rax
    1000220a:	c7 00 01 00 00 00    	movl   $0x1,(%rax)
    10002210:	48 8b 45 f8          	mov    -0x8(%rbp),%rax
    10002214:	8b 55 f4             	mov    -0xc(%rbp),%edx
    10002217:	89 50 04             	mov    %edx,0x4(%rax)
    1000221a:	48 8b 45 f8          	mov    -0x8(%rbp),%rax
    1000221e:	c7 40 3c 01 00 00 00 	movl   $0x1,0x3c(%rax)
    10002225:	48 8b 45 f8          	mov    -0x8(%rbp),%rax
    10002229:	48 83 c0 20          	add    $0x20,%rax
    1000222d:	48 89 c7             	mov    %rax,%rdi
    10002230:	e8 5b ec ff ff       	callq  10000e90 <event_init>
    10002235:	48 8b 45 f8          	mov    -0x8(%rbp),%rax
    10002239:	48 83 c0 24          	add    $0x24,%rax
    1000223d:	48 89 c7             	mov    %rax,%rdi
    10002240:	e8 4b ec ff ff       	callq  10000e90 <event_init>
    10002245:	48 8b 45 f8          	mov    -0x8(%rbp),%rax
    10002249:	48 83 c0 24          	add    $0x24,%rax
    1000224d:	48 89 c7             	mov    %rax,%rdi
    10002250:	e8 81 ec ff ff       	callq  10000ed6 <event_set>
    10002255:	90                   	nop
    10002256:	c9                   	leaveq 
    10002257:	c3                   	retq   

0000000010002258 <execute_call>:
    10002258:	55                   	push   %rbp
    10002259:	48 89 e5             	mov    %rsp,%rbp
    1000225c:	53                   	push   %rbx
    1000225d:	48 83 ec 28          	sub    $0x28,%rsp
    10002261:	48 89 7d d8          	mov    %rdi,-0x28(%rbp)
    10002265:	bf 94 6b 00 10       	mov    $0x10006b94,%edi
    1000226a:	b8 00 00 00 00       	mov    $0x0,%eax
    1000226f:	e8 28 e0 ff ff       	callq  1000029c <debug>
    10002274:	48 8b 45 d8          	mov    -0x28(%rbp),%rax
    10002278:	48 83 c0 20          	add    $0x20,%rax
    1000227c:	48 89 c7             	mov    %rax,%rdi
    1000227f:	e8 2f ec ff ff       	callq  10000eb3 <event_reset>
    10002284:	48 8b 45 d8          	mov    -0x28(%rbp),%rax
    10002288:	8b 40 44             	mov    0x44(%rax),%eax
    1000228b:	48 63 d0             	movslq %eax,%rdx
    1000228e:	48 89 d0             	mov    %rdx,%rax
    10002291:	48 01 c0             	add    %rax,%rax
    10002294:	48 01 d0             	add    %rdx,%rax
    10002297:	48 c1 e0 03          	shl    $0x3,%rax
    1000229b:	48 05 20 80 00 10    	add    $0x10008020,%rax
    100022a1:	48 89 45 e0          	mov    %rax,-0x20(%rbp)
    100022a5:	48 8b 45 e0          	mov    -0x20(%rbp),%rax
    100022a9:	48 8b 10             	mov    (%rax),%rdx
    100022ac:	48 8b 45 d8          	mov    -0x28(%rbp),%rax
    100022b0:	8b 40 04             	mov    0x4(%rax),%eax
    100022b3:	89 c6                	mov    %eax,%esi
    100022b5:	bf a2 6b 00 10       	mov    $0x10006ba2,%edi
    100022ba:	b8 00 00 00 00       	mov    $0x0,%eax
    100022bf:	e8 d8 df ff ff       	callq  1000029c <debug>
    100022c4:	c7 45 ec 00 00 00 00 	movl   $0x0,-0x14(%rbp)
    100022cb:	eb 3d                	jmp    1000230a <execute_call+0xb2>
    100022cd:	83 7d ec 00          	cmpl   $0x0,-0x14(%rbp)
    100022d1:	74 0f                	je     100022e2 <execute_call+0x8a>
    100022d3:	bf ab 6b 00 10       	mov    $0x10006bab,%edi
    100022d8:	b8 00 00 00 00       	mov    $0x0,%eax
    100022dd:	e8 ba df ff ff       	callq  1000029c <debug>
    100022e2:	48 8b 45 d8          	mov    -0x28(%rbp),%rax
    100022e6:	8b 55 ec             	mov    -0x14(%rbp),%edx
    100022e9:	48 63 d2             	movslq %edx,%rdx
    100022ec:	48 83 c2 0a          	add    $0xa,%rdx
    100022f0:	48 8b 04 d0          	mov    (%rax,%rdx,8),%rax
    100022f4:	48 89 c6             	mov    %rax,%rsi
    100022f7:	bf ae 6b 00 10       	mov    $0x10006bae,%edi
    100022fc:	b8 00 00 00 00       	mov    $0x0,%eax
    10002301:	e8 96 df ff ff       	callq  1000029c <debug>
    10002306:	83 45 ec 01          	addl   $0x1,-0x14(%rbp)
    1000230a:	48 8b 45 d8          	mov    -0x28(%rbp),%rax
    1000230e:	8b 40 48             	mov    0x48(%rax),%eax
    10002311:	39 45 ec             	cmp    %eax,-0x14(%rbp)
    10002314:	7c b7                	jl     100022cd <execute_call+0x75>
    10002316:	bf b4 6b 00 10       	mov    $0x10006bb4,%edi
    1000231b:	b8 00 00 00 00       	mov    $0x0,%eax
    10002320:	e8 77 df ff ff       	callq  1000029c <debug>
    10002325:	c7 45 e8 ff ff ff ff 	movl   $0xffffffff,-0x18(%rbp)
    1000232c:	8b 05 d2 dc 13 01    	mov    0x113dcd2(%rip),%eax        # 11140004 <flag_inject_fault>
    10002332:	85 c0                	test   %eax,%eax
    10002334:	74 51                	je     10002387 <execute_call+0x12f>
    10002336:	48 8b 45 d8          	mov    -0x28(%rbp),%rax
    1000233a:	8b 50 40             	mov    0x40(%rax),%edx
    1000233d:	8b 05 69 1b 14 01    	mov    0x1141b69(%rip),%eax        # 11143eac <flag_fault_call>
    10002343:	39 c2                	cmp    %eax,%edx
    10002345:	75 40                	jne    10002387 <execute_call+0x12f>
    10002347:	8b 05 bb dc 13 01    	mov    0x113dcbb(%rip),%eax        # 11140008 <collide>
    1000234d:	85 c0                	test   %eax,%eax
    1000234f:	74 0f                	je     10002360 <execute_call+0x108>
    10002351:	bf b8 6b 00 10       	mov    $0x10006bb8,%edi
    10002356:	b8 00 00 00 00       	mov    $0x0,%eax
    1000235b:	e8 d1 dc ff ff       	callq  10000031 <fail>
    10002360:	8b 05 b6 dc 24 01    	mov    0x124dcb6(%rip),%eax        # 1125001c <flag_fault_nth>
    10002366:	89 c6                	mov    %eax,%esi
    10002368:	bf e8 6b 00 10       	mov    $0x10006be8,%edi
    1000236d:	b8 00 00 00 00       	mov    $0x0,%eax
    10002372:	e8 25 df ff ff       	callq  1000029c <debug>
    10002377:	8b 05 9f dc 24 01    	mov    0x124dc9f(%rip),%eax        # 1125001c <flag_fault_nth>
    1000237d:	89 c7                	mov    %eax,%edi
    1000237f:	e8 9e e6 ff ff       	callq  10000a22 <inject_fault>
    10002384:	89 45 e8             	mov    %eax,-0x18(%rbp)
    10002387:	48 8b 45 d8          	mov    -0x28(%rbp),%rax
    1000238b:	48 89 c7             	mov    %rax,%rdi
    1000238e:	e8 ab 0c 00 00       	callq  1000303e <cover_reset>
    10002393:	c7 05 3b dd 00 00 00 	movl   $0x0,0xdd3b(%rip)        # 100100d8 <errno>
    1000239a:	00 00 00 
    1000239d:	48 8b 45 d8          	mov    -0x28(%rbp),%rax
    100023a1:	4c 8b 90 90 00 00 00 	mov    0x90(%rax),%r10
    100023a8:	48 8b 45 d8          	mov    -0x28(%rbp),%rax
    100023ac:	4c 8b 88 88 00 00 00 	mov    0x88(%rax),%r9
    100023b3:	48 8b 45 d8          	mov    -0x28(%rbp),%rax
    100023b7:	4c 8b 80 80 00 00 00 	mov    0x80(%rax),%r8
    100023be:	48 8b 45 d8          	mov    -0x28(%rbp),%rax
    100023c2:	48 8b 78 78          	mov    0x78(%rax),%rdi
    100023c6:	48 8b 45 d8          	mov    -0x28(%rbp),%rax
    100023ca:	48 8b 58 70          	mov    0x70(%rax),%rbx
    100023ce:	48 8b 45 d8          	mov    -0x28(%rbp),%rax
    100023d2:	4c 8b 58 68          	mov    0x68(%rax),%r11
    100023d6:	48 8b 45 d8          	mov    -0x28(%rbp),%rax
    100023da:	48 8b 48 60          	mov    0x60(%rax),%rcx
    100023de:	48 8b 45 d8          	mov    -0x28(%rbp),%rax
    100023e2:	48 8b 50 58          	mov    0x58(%rax),%rdx
    100023e6:	48 8b 45 d8          	mov    -0x28(%rbp),%rax
    100023ea:	48 8b 70 50          	mov    0x50(%rax),%rsi
    100023ee:	48 8b 45 e0          	mov    -0x20(%rbp),%rax
    100023f2:	41 52                	push   %r10
    100023f4:	41 51                	push   %r9
    100023f6:	41 50                	push   %r8
    100023f8:	57                   	push   %rdi
    100023f9:	49 89 d9             	mov    %rbx,%r9
    100023fc:	4d 89 d8             	mov    %r11,%r8
    100023ff:	48 89 c7             	mov    %rax,%rdi
    10002402:	e8 7b 0b 00 00       	callq  10002f82 <execute_syscall>
    10002407:	48 83 c4 20          	add    $0x20,%rsp
    1000240b:	48 89 c2             	mov    %rax,%rdx
    1000240e:	48 8b 45 d8          	mov    -0x28(%rbp),%rax
    10002412:	48 89 90 98 00 00 00 	mov    %rdx,0x98(%rax)
    10002419:	8b 05 b9 dc 00 00    	mov    0xdcb9(%rip),%eax        # 100100d8 <errno>
    1000241f:	89 c2                	mov    %eax,%edx
    10002421:	48 8b 45 d8          	mov    -0x28(%rbp),%rax
    10002425:	89 90 a0 00 00 00    	mov    %edx,0xa0(%rax)
    1000242b:	48 8b 45 d8          	mov    -0x28(%rbp),%rax
    1000242f:	48 8b 80 98 00 00 00 	mov    0x98(%rax),%rax
    10002436:	48 83 f8 ff          	cmp    $0xffffffffffffffff,%rax
    1000243a:	75 1c                	jne    10002458 <execute_call+0x200>
    1000243c:	48 8b 45 d8          	mov    -0x28(%rbp),%rax
    10002440:	8b 80 a0 00 00 00    	mov    0xa0(%rax),%eax
    10002446:	85 c0                	test   %eax,%eax
    10002448:	75 0e                	jne    10002458 <execute_call+0x200>
    1000244a:	48 8b 45 d8          	mov    -0x28(%rbp),%rax
    1000244e:	c7 80 a0 00 00 00 16 	movl   $0x16,0xa0(%rax)
    10002455:	00 00 00 
    10002458:	48 8b 45 d8          	mov    -0x28(%rbp),%rax
    1000245c:	48 89 c7             	mov    %rax,%rdi
    1000245f:	e8 ec 0b 00 00       	callq  10003050 <read_cover_size>
    10002464:	89 c2                	mov    %eax,%edx
    10002466:	48 8b 45 d8          	mov    -0x28(%rbp),%rax
    1000246a:	89 90 a4 00 00 00    	mov    %edx,0xa4(%rax)
    10002470:	48 8b 45 d8          	mov    -0x28(%rbp),%rax
    10002474:	c7 80 a8 00 00 00 00 	movl   $0x0,0xa8(%rax)
    1000247b:	00 00 00 
    1000247e:	8b 05 80 db 13 01    	mov    0x113db80(%rip),%eax        # 11140004 <flag_inject_fault>
    10002484:	85 c0                	test   %eax,%eax
    10002486:	74 42                	je     100024ca <execute_call+0x272>
    10002488:	48 8b 45 d8          	mov    -0x28(%rbp),%rax
    1000248c:	8b 50 40             	mov    0x40(%rax),%edx
    1000248f:	8b 05 17 1a 14 01    	mov    0x1141a17(%rip),%eax        # 11143eac <flag_fault_call>
    10002495:	39 c2                	cmp    %eax,%edx
    10002497:	75 31                	jne    100024ca <execute_call+0x272>
    10002499:	8b 45 e8             	mov    -0x18(%rbp),%eax
    1000249c:	89 c7                	mov    %eax,%edi
    1000249e:	e8 22 e6 ff ff       	callq  10000ac5 <fault_injected>
    100024a3:	89 c2                	mov    %eax,%edx
    100024a5:	48 8b 45 d8          	mov    -0x28(%rbp),%rax
    100024a9:	89 90 a8 00 00 00    	mov    %edx,0xa8(%rax)
    100024af:	48 8b 45 d8          	mov    -0x28(%rbp),%rax
    100024b3:	8b 80 a8 00 00 00    	mov    0xa8(%rax),%eax
    100024b9:	89 c6                	mov    %eax,%esi
    100024bb:	bf 0e 6c 00 10       	mov    $0x10006c0e,%edi
    100024c0:	b8 00 00 00 00       	mov    $0x0,%eax
    100024c5:	e8 d2 dd ff ff       	callq  1000029c <debug>
    100024ca:	48 8b 45 d8          	mov    -0x28(%rbp),%rax
    100024ce:	48 8b 80 98 00 00 00 	mov    0x98(%rax),%rax
    100024d5:	48 85 c0             	test   %rax,%rax
    100024d8:	79 2c                	jns    10002506 <execute_call+0x2ae>
    100024da:	48 8b 45 d8          	mov    -0x28(%rbp),%rax
    100024de:	48 8b 88 98 00 00 00 	mov    0x98(%rax),%rcx
    100024e5:	48 8b 45 e0          	mov    -0x20(%rbp),%rax
    100024e9:	48 8b 10             	mov    (%rax),%rdx
    100024ec:	48 8b 45 d8          	mov    -0x28(%rbp),%rax
    100024f0:	8b 40 04             	mov    0x4(%rax),%eax
    100024f3:	89 c6                	mov    %eax,%esi
    100024f5:	bf 22 6c 00 10       	mov    $0x10006c22,%edi
    100024fa:	b8 00 00 00 00       	mov    $0x0,%eax
    100024ff:	e8 98 dd ff ff       	callq  1000029c <debug>
    10002504:	eb 2a                	jmp    10002530 <execute_call+0x2d8>
    10002506:	48 8b 45 d8          	mov    -0x28(%rbp),%rax
    1000250a:	48 8b 88 98 00 00 00 	mov    0x98(%rax),%rcx
    10002511:	48 8b 45 e0          	mov    -0x20(%rbp),%rax
    10002515:	48 8b 10             	mov    (%rax),%rdx
    10002518:	48 8b 45 d8          	mov    -0x28(%rbp),%rax
    1000251c:	8b 40 04             	mov    0x4(%rax),%eax
    1000251f:	89 c6                	mov    %eax,%esi
    10002521:	bf 37 6c 00 10       	mov    $0x10006c37,%edi
    10002526:	b8 00 00 00 00       	mov    $0x0,%eax
    1000252b:	e8 6c dd ff ff       	callq  1000029c <debug>
    10002530:	48 8b 45 d8          	mov    -0x28(%rbp),%rax
    10002534:	48 83 c0 24          	add    $0x24,%rax
    10002538:	48 89 c7             	mov    %rax,%rdi
    1000253b:	e8 96 e9 ff ff       	callq  10000ed6 <event_set>
    10002540:	90                   	nop
    10002541:	48 8b 5d f8          	mov    -0x8(%rbp),%rbx
    10002545:	c9                   	leaveq 
    10002546:	c3                   	retq   

0000000010002547 <hash>:
    10002547:	55                   	push   %rbp
    10002548:	48 89 e5             	mov    %rsp,%rbp
    1000254b:	89 7d fc             	mov    %edi,-0x4(%rbp)
    1000254e:	8b 45 fc             	mov    -0x4(%rbp),%eax
    10002551:	c1 e8 10             	shr    $0x10,%eax
    10002554:	33 45 fc             	xor    -0x4(%rbp),%eax
    10002557:	83 f0 3d             	xor    $0x3d,%eax
    1000255a:	89 45 fc             	mov    %eax,-0x4(%rbp)
    1000255d:	8b 45 fc             	mov    -0x4(%rbp),%eax
    10002560:	c1 e0 03             	shl    $0x3,%eax
    10002563:	01 45 fc             	add    %eax,-0x4(%rbp)
    10002566:	8b 45 fc             	mov    -0x4(%rbp),%eax
    10002569:	c1 e8 04             	shr    $0x4,%eax
    1000256c:	31 45 fc             	xor    %eax,-0x4(%rbp)
    1000256f:	8b 45 fc             	mov    -0x4(%rbp),%eax
    10002572:	69 c0 2d eb d4 27    	imul   $0x27d4eb2d,%eax,%eax
    10002578:	89 45 fc             	mov    %eax,-0x4(%rbp)
    1000257b:	8b 45 fc             	mov    -0x4(%rbp),%eax
    1000257e:	c1 e8 0f             	shr    $0xf,%eax
    10002581:	31 45 fc             	xor    %eax,-0x4(%rbp)
    10002584:	8b 45 fc             	mov    -0x4(%rbp),%eax
    10002587:	5d                   	pop    %rbp
    10002588:	c3                   	retq   

0000000010002589 <dedup>:
    10002589:	55                   	push   %rbp
    1000258a:	48 89 e5             	mov    %rsp,%rbp
    1000258d:	89 7d ec             	mov    %edi,-0x14(%rbp)
    10002590:	c7 45 fc 00 00 00 00 	movl   $0x0,-0x4(%rbp)
    10002597:	eb 4c                	jmp    100025e5 <dedup+0x5c>
    10002599:	8b 55 ec             	mov    -0x14(%rbp),%edx
    1000259c:	8b 45 fc             	mov    -0x4(%rbp),%eax
    1000259f:	01 d0                	add    %edx,%eax
    100025a1:	25 ff 1f 00 00       	and    $0x1fff,%eax
    100025a6:	89 45 f8             	mov    %eax,-0x8(%rbp)
    100025a9:	8b 45 f8             	mov    -0x8(%rbp),%eax
    100025ac:	8b 04 85 40 00 25 11 	mov    0x11250040(,%rax,4),%eax
    100025b3:	39 45 ec             	cmp    %eax,-0x14(%rbp)
    100025b6:	75 07                	jne    100025bf <dedup+0x36>
    100025b8:	b8 01 00 00 00       	mov    $0x1,%eax
    100025bd:	eb 45                	jmp    10002604 <dedup+0x7b>
    100025bf:	8b 45 f8             	mov    -0x8(%rbp),%eax
    100025c2:	8b 04 85 40 00 25 11 	mov    0x11250040(,%rax,4),%eax
    100025c9:	85 c0                	test   %eax,%eax
    100025cb:	75 14                	jne    100025e1 <dedup+0x58>
    100025cd:	8b 45 f8             	mov    -0x8(%rbp),%eax
    100025d0:	8b 55 ec             	mov    -0x14(%rbp),%edx
    100025d3:	89 14 85 40 00 25 11 	mov    %edx,0x11250040(,%rax,4)
    100025da:	b8 00 00 00 00       	mov    $0x0,%eax
    100025df:	eb 23                	jmp    10002604 <dedup+0x7b>
    100025e1:	83 45 fc 01          	addl   $0x1,-0x4(%rbp)
    100025e5:	83 7d fc 03          	cmpl   $0x3,-0x4(%rbp)
    100025e9:	76 ae                	jbe    10002599 <dedup+0x10>
    100025eb:	8b 45 ec             	mov    -0x14(%rbp),%eax
    100025ee:	25 ff 1f 00 00       	and    $0x1fff,%eax
    100025f3:	89 c2                	mov    %eax,%edx
    100025f5:	8b 45 ec             	mov    -0x14(%rbp),%eax
    100025f8:	89 04 95 40 00 25 11 	mov    %eax,0x11250040(,%rdx,4)
    100025ff:	b8 00 00 00 00       	mov    $0x0,%eax
    10002604:	5d                   	pop    %rbp
    10002605:	c3                   	retq   

0000000010002606 <copyin>:
    10002606:	55                   	push   %rbp
    10002607:	48 89 e5             	mov    %rsp,%rbp
    1000260a:	48 83 ec 40          	sub    $0x40,%rsp
    1000260e:	48 89 7d e8          	mov    %rdi,-0x18(%rbp)
    10002612:	48 89 75 e0          	mov    %rsi,-0x20(%rbp)
    10002616:	48 89 55 d8          	mov    %rdx,-0x28(%rbp)
    1000261a:	48 89 4d d0          	mov    %rcx,-0x30(%rbp)
    1000261e:	4c 89 45 c8          	mov    %r8,-0x38(%rbp)
    10002622:	48 8b 45 d8          	mov    -0x28(%rbp),%rax
    10002626:	48 83 f8 02          	cmp    $0x2,%rax
    1000262a:	0f 84 c0 00 00 00    	je     100026f0 <copyin+0xea>
    10002630:	48 83 f8 02          	cmp    $0x2,%rax
    10002634:	77 0b                	ja     10002641 <copyin+0x3b>
    10002636:	48 83 f8 01          	cmp    $0x1,%rax
    1000263a:	74 1e                	je     1000265a <copyin+0x54>
    1000263c:	e9 4e 02 00 00       	jmpq   1000288f <copyin+0x289>
    10002641:	48 83 f8 04          	cmp    $0x4,%rax
    10002645:	0f 84 40 01 00 00    	je     1000278b <copyin+0x185>
    1000264b:	48 83 f8 08          	cmp    $0x8,%rax
    1000264f:	0f 84 b8 01 00 00    	je     1000280d <copyin+0x207>
    10002655:	e9 35 02 00 00       	jmpq   1000288f <copyin+0x289>
    1000265a:	48 83 7d d0 00       	cmpq   $0x0,-0x30(%rbp)
    1000265f:	75 18                	jne    10002679 <copyin+0x73>
    10002661:	48 83 7d c8 00       	cmpq   $0x0,-0x38(%rbp)
    10002666:	75 11                	jne    10002679 <copyin+0x73>
    10002668:	48 8b 45 e0          	mov    -0x20(%rbp),%rax
    1000266c:	89 c2                	mov    %eax,%edx
    1000266e:	48 8b 45 e8          	mov    -0x18(%rbp),%rax
    10002672:	88 10                	mov    %dl,(%rax)
    10002674:	e9 2c 02 00 00       	jmpq   100028a5 <copyin+0x29f>
    10002679:	48 8b 45 e8          	mov    -0x18(%rbp),%rax
    1000267d:	0f b6 00             	movzbl (%rax),%eax
    10002680:	88 45 f1             	mov    %al,-0xf(%rbp)
    10002683:	48 8b 45 c8          	mov    -0x38(%rbp),%rax
    10002687:	ba 01 00 00 00       	mov    $0x1,%edx
    1000268c:	89 c1                	mov    %eax,%ecx
    1000268e:	48 d3 e2             	shl    %cl,%rdx
    10002691:	48 89 d0             	mov    %rdx,%rax
    10002694:	83 e8 01             	sub    $0x1,%eax
    10002697:	0f b6 c0             	movzbl %al,%eax
    1000269a:	48 8b 55 d0          	mov    -0x30(%rbp),%rdx
    1000269e:	89 d1                	mov    %edx,%ecx
    100026a0:	d3 e0                	shl    %cl,%eax
    100026a2:	f7 d0                	not    %eax
    100026a4:	89 c2                	mov    %eax,%edx
    100026a6:	0f b6 45 f1          	movzbl -0xf(%rbp),%eax
    100026aa:	21 d0                	and    %edx,%eax
    100026ac:	88 45 f1             	mov    %al,-0xf(%rbp)
    100026af:	48 8b 45 e0          	mov    -0x20(%rbp),%rax
    100026b3:	89 c2                	mov    %eax,%edx
    100026b5:	48 8b 45 c8          	mov    -0x38(%rbp),%rax
    100026b9:	be 01 00 00 00       	mov    $0x1,%esi
    100026be:	89 c1                	mov    %eax,%ecx
    100026c0:	48 d3 e6             	shl    %cl,%rsi
    100026c3:	48 89 f0             	mov    %rsi,%rax
    100026c6:	83 e8 01             	sub    $0x1,%eax
    100026c9:	21 d0                	and    %edx,%eax
    100026cb:	0f b6 c0             	movzbl %al,%eax
    100026ce:	48 8b 55 d0          	mov    -0x30(%rbp),%rdx
    100026d2:	89 d1                	mov    %edx,%ecx
    100026d4:	d3 e0                	shl    %cl,%eax
    100026d6:	89 c2                	mov    %eax,%edx
    100026d8:	0f b6 45 f1          	movzbl -0xf(%rbp),%eax
    100026dc:	09 d0                	or     %edx,%eax
    100026de:	88 45 f1             	mov    %al,-0xf(%rbp)
    100026e1:	48 8b 45 e8          	mov    -0x18(%rbp),%rax
    100026e5:	0f b6 55 f1          	movzbl -0xf(%rbp),%edx
    100026e9:	88 10                	mov    %dl,(%rax)
    100026eb:	e9 b5 01 00 00       	jmpq   100028a5 <copyin+0x29f>
    100026f0:	48 83 7d d0 00       	cmpq   $0x0,-0x30(%rbp)
    100026f5:	75 19                	jne    10002710 <copyin+0x10a>
    100026f7:	48 83 7d c8 00       	cmpq   $0x0,-0x38(%rbp)
    100026fc:	75 12                	jne    10002710 <copyin+0x10a>
    100026fe:	48 8b 45 e0          	mov    -0x20(%rbp),%rax
    10002702:	89 c2                	mov    %eax,%edx
    10002704:	48 8b 45 e8          	mov    -0x18(%rbp),%rax
    10002708:	66 89 10             	mov    %dx,(%rax)
    1000270b:	e9 95 01 00 00       	jmpq   100028a5 <copyin+0x29f>
    10002710:	48 8b 45 e8          	mov    -0x18(%rbp),%rax
    10002714:	0f b7 00             	movzwl (%rax),%eax
    10002717:	66 89 45 f2          	mov    %ax,-0xe(%rbp)
    1000271b:	48 8b 45 c8          	mov    -0x38(%rbp),%rax
    1000271f:	ba 01 00 00 00       	mov    $0x1,%edx
    10002724:	89 c1                	mov    %eax,%ecx
    10002726:	48 d3 e2             	shl    %cl,%rdx
    10002729:	48 89 d0             	mov    %rdx,%rax
    1000272c:	83 e8 01             	sub    $0x1,%eax
    1000272f:	0f b7 c0             	movzwl %ax,%eax
    10002732:	48 8b 55 d0          	mov    -0x30(%rbp),%rdx
    10002736:	89 d1                	mov    %edx,%ecx
    10002738:	d3 e0                	shl    %cl,%eax
    1000273a:	f7 d0                	not    %eax
    1000273c:	89 c2                	mov    %eax,%edx
    1000273e:	0f b7 45 f2          	movzwl -0xe(%rbp),%eax
    10002742:	21 d0                	and    %edx,%eax
    10002744:	66 89 45 f2          	mov    %ax,-0xe(%rbp)
    10002748:	48 8b 45 e0          	mov    -0x20(%rbp),%rax
    1000274c:	89 c2                	mov    %eax,%edx
    1000274e:	48 8b 45 c8          	mov    -0x38(%rbp),%rax
    10002752:	be 01 00 00 00       	mov    $0x1,%esi
    10002757:	89 c1                	mov    %eax,%ecx
    10002759:	48 d3 e6             	shl    %cl,%rsi
    1000275c:	48 89 f0             	mov    %rsi,%rax
    1000275f:	83 e8 01             	sub    $0x1,%eax
    10002762:	21 d0                	and    %edx,%eax
    10002764:	0f b7 c0             	movzwl %ax,%eax
    10002767:	48 8b 55 d0          	mov    -0x30(%rbp),%rdx
    1000276b:	89 d1                	mov    %edx,%ecx
    1000276d:	d3 e0                	shl    %cl,%eax
    1000276f:	89 c2                	mov    %eax,%edx
    10002771:	0f b7 45 f2          	movzwl -0xe(%rbp),%eax
    10002775:	09 d0                	or     %edx,%eax
    10002777:	66 89 45 f2          	mov    %ax,-0xe(%rbp)
    1000277b:	48 8b 45 e8          	mov    -0x18(%rbp),%rax
    1000277f:	0f b7 55 f2          	movzwl -0xe(%rbp),%edx
    10002783:	66 89 10             	mov    %dx,(%rax)
    10002786:	e9 1a 01 00 00       	jmpq   100028a5 <copyin+0x29f>
    1000278b:	48 83 7d d0 00       	cmpq   $0x0,-0x30(%rbp)
    10002790:	75 18                	jne    100027aa <copyin+0x1a4>
    10002792:	48 83 7d c8 00       	cmpq   $0x0,-0x38(%rbp)
    10002797:	75 11                	jne    100027aa <copyin+0x1a4>
    10002799:	48 8b 45 e0          	mov    -0x20(%rbp),%rax
    1000279d:	89 c2                	mov    %eax,%edx
    1000279f:	48 8b 45 e8          	mov    -0x18(%rbp),%rax
    100027a3:	89 10                	mov    %edx,(%rax)
    100027a5:	e9 fb 00 00 00       	jmpq   100028a5 <copyin+0x29f>
    100027aa:	48 8b 45 e8          	mov    -0x18(%rbp),%rax
    100027ae:	8b 00                	mov    (%rax),%eax
    100027b0:	89 45 f4             	mov    %eax,-0xc(%rbp)
    100027b3:	48 8b 45 c8          	mov    -0x38(%rbp),%rax
    100027b7:	ba 01 00 00 00       	mov    $0x1,%edx
    100027bc:	89 c1                	mov    %eax,%ecx
    100027be:	48 d3 e2             	shl    %cl,%rdx
    100027c1:	48 89 d0             	mov    %rdx,%rax
    100027c4:	8d 50 ff             	lea    -0x1(%rax),%edx
    100027c7:	48 8b 45 d0          	mov    -0x30(%rbp),%rax
    100027cb:	89 c1                	mov    %eax,%ecx
    100027cd:	d3 e2                	shl    %cl,%edx
    100027cf:	89 d0                	mov    %edx,%eax
    100027d1:	f7 d0                	not    %eax
    100027d3:	21 45 f4             	and    %eax,-0xc(%rbp)
    100027d6:	48 8b 45 e0          	mov    -0x20(%rbp),%rax
    100027da:	89 c2                	mov    %eax,%edx
    100027dc:	48 8b 45 c8          	mov    -0x38(%rbp),%rax
    100027e0:	be 01 00 00 00       	mov    $0x1,%esi
    100027e5:	89 c1                	mov    %eax,%ecx
    100027e7:	48 d3 e6             	shl    %cl,%rsi
    100027ea:	48 89 f0             	mov    %rsi,%rax
    100027ed:	83 e8 01             	sub    $0x1,%eax
    100027f0:	21 c2                	and    %eax,%edx
    100027f2:	48 8b 45 d0          	mov    -0x30(%rbp),%rax
    100027f6:	89 c1                	mov    %eax,%ecx
    100027f8:	d3 e2                	shl    %cl,%edx
    100027fa:	89 d0                	mov    %edx,%eax
    100027fc:	09 45 f4             	or     %eax,-0xc(%rbp)
    100027ff:	48 8b 45 e8          	mov    -0x18(%rbp),%rax
    10002803:	8b 55 f4             	mov    -0xc(%rbp),%edx
    10002806:	89 10                	mov    %edx,(%rax)
    10002808:	e9 98 00 00 00       	jmpq   100028a5 <copyin+0x29f>
    1000280d:	48 83 7d d0 00       	cmpq   $0x0,-0x30(%rbp)
    10002812:	75 14                	jne    10002828 <copyin+0x222>
    10002814:	48 83 7d c8 00       	cmpq   $0x0,-0x38(%rbp)
    10002819:	75 0d                	jne    10002828 <copyin+0x222>
    1000281b:	48 8b 45 e8          	mov    -0x18(%rbp),%rax
    1000281f:	48 8b 55 e0          	mov    -0x20(%rbp),%rdx
    10002823:	48 89 10             	mov    %rdx,(%rax)
    10002826:	eb 7d                	jmp    100028a5 <copyin+0x29f>
    10002828:	48 8b 45 e8          	mov    -0x18(%rbp),%rax
    1000282c:	48 8b 00             	mov    (%rax),%rax
    1000282f:	48 89 45 f8          	mov    %rax,-0x8(%rbp)
    10002833:	48 8b 45 c8          	mov    -0x38(%rbp),%rax
    10002837:	ba 01 00 00 00       	mov    $0x1,%edx
    1000283c:	89 c1                	mov    %eax,%ecx
    1000283e:	48 d3 e2             	shl    %cl,%rdx
    10002841:	48 89 d0             	mov    %rdx,%rax
    10002844:	48 8d 50 ff          	lea    -0x1(%rax),%rdx
    10002848:	48 8b 45 d0          	mov    -0x30(%rbp),%rax
    1000284c:	89 c1                	mov    %eax,%ecx
    1000284e:	48 d3 e2             	shl    %cl,%rdx
    10002851:	48 89 d0             	mov    %rdx,%rax
    10002854:	48 f7 d0             	not    %rax
    10002857:	48 21 45 f8          	and    %rax,-0x8(%rbp)
    1000285b:	48 8b 45 c8          	mov    -0x38(%rbp),%rax
    1000285f:	48 c7 c2 ff ff ff ff 	mov    $0xffffffffffffffff,%rdx
    10002866:	89 c1                	mov    %eax,%ecx
    10002868:	48 d3 e2             	shl    %cl,%rdx
    1000286b:	48 89 d0             	mov    %rdx,%rax
    1000286e:	48 f7 d0             	not    %rax
    10002871:	48 23 45 e0          	and    -0x20(%rbp),%rax
    10002875:	48 8b 55 d0          	mov    -0x30(%rbp),%rdx
    10002879:	89 d1                	mov    %edx,%ecx
    1000287b:	48 d3 e0             	shl    %cl,%rax
    1000287e:	48 09 45 f8          	or     %rax,-0x8(%rbp)
    10002882:	48 8b 45 e8          	mov    -0x18(%rbp),%rax
    10002886:	48 8b 55 f8          	mov    -0x8(%rbp),%rdx
    1000288a:	48 89 10             	mov    %rdx,(%rax)
    1000288d:	eb 16                	jmp    100028a5 <copyin+0x29f>
    1000288f:	48 8b 45 d8          	mov    -0x28(%rbp),%rax
    10002893:	48 89 c6             	mov    %rax,%rsi
    10002896:	bf 48 6c 00 10       	mov    $0x10006c48,%edi
    1000289b:	b8 00 00 00 00       	mov    $0x0,%eax
    100028a0:	e8 8c d7 ff ff       	callq  10000031 <fail>
    100028a5:	90                   	nop
    100028a6:	c9                   	leaveq 
    100028a7:	c3                   	retq   

00000000100028a8 <copyout>:
    100028a8:	55                   	push   %rbp
    100028a9:	48 89 e5             	mov    %rsp,%rbp
    100028ac:	48 83 ec 40          	sub    $0x40,%rsp
    100028b0:	48 89 7d d8          	mov    %rdi,-0x28(%rbp)
    100028b4:	48 89 75 d0          	mov    %rsi,-0x30(%rbp)
    100028b8:	48 89 55 c8          	mov    %rdx,-0x38(%rbp)
    100028bc:	48 8d 45 e0          	lea    -0x20(%rbp),%rax
    100028c0:	48 89 45 f8          	mov    %rax,-0x8(%rbp)
    100028c4:	c7 45 f4 00 00 00 00 	movl   $0x0,-0xc(%rbp)
    100028cb:	48 8b 45 f8          	mov    -0x8(%rbp),%rax
    100028cf:	8b 55 f4             	mov    -0xc(%rbp),%edx
    100028d2:	89 10                	mov    %edx,(%rax)
    100028d4:	48 8b 45 d0          	mov    -0x30(%rbp),%rax
    100028d8:	48 83 f8 02          	cmp    $0x2,%rax
    100028dc:	74 2f                	je     1000290d <copyout+0x65>
    100028de:	48 83 f8 02          	cmp    $0x2,%rax
    100028e2:	77 08                	ja     100028ec <copyout+0x44>
    100028e4:	48 83 f8 01          	cmp    $0x1,%rax
    100028e8:	74 10                	je     100028fa <copyout+0x52>
    100028ea:	eb 55                	jmp    10002941 <copyout+0x99>
    100028ec:	48 83 f8 04          	cmp    $0x4,%rax
    100028f0:	74 2e                	je     10002920 <copyout+0x78>
    100028f2:	48 83 f8 08          	cmp    $0x8,%rax
    100028f6:	74 39                	je     10002931 <copyout+0x89>
    100028f8:	eb 47                	jmp    10002941 <copyout+0x99>
    100028fa:	48 8b 45 d8          	mov    -0x28(%rbp),%rax
    100028fe:	0f b6 00             	movzbl (%rax),%eax
    10002901:	0f b6 d0             	movzbl %al,%edx
    10002904:	48 8b 45 c8          	mov    -0x38(%rbp),%rax
    10002908:	48 89 10             	mov    %rdx,(%rax)
    1000290b:	eb 4a                	jmp    10002957 <copyout+0xaf>
    1000290d:	48 8b 45 d8          	mov    -0x28(%rbp),%rax
    10002911:	0f b7 00             	movzwl (%rax),%eax
    10002914:	0f b7 d0             	movzwl %ax,%edx
    10002917:	48 8b 45 c8          	mov    -0x38(%rbp),%rax
    1000291b:	48 89 10             	mov    %rdx,(%rax)
    1000291e:	eb 37                	jmp    10002957 <copyout+0xaf>
    10002920:	48 8b 45 d8          	mov    -0x28(%rbp),%rax
    10002924:	8b 00                	mov    (%rax),%eax
    10002926:	89 c2                	mov    %eax,%edx
    10002928:	48 8b 45 c8          	mov    -0x38(%rbp),%rax
    1000292c:	48 89 10             	mov    %rdx,(%rax)
    1000292f:	eb 26                	jmp    10002957 <copyout+0xaf>
    10002931:	48 8b 45 d8          	mov    -0x28(%rbp),%rax
    10002935:	48 8b 10             	mov    (%rax),%rdx
    10002938:	48 8b 45 c8          	mov    -0x38(%rbp),%rax
    1000293c:	48 89 10             	mov    %rdx,(%rax)
    1000293f:	eb 16                	jmp    10002957 <copyout+0xaf>
    10002941:	48 8b 45 d0          	mov    -0x30(%rbp),%rax
    10002945:	48 89 c6             	mov    %rax,%rsi
    10002948:	bf 68 6c 00 10       	mov    $0x10006c68,%edi
    1000294d:	b8 00 00 00 00       	mov    $0x0,%eax
    10002952:	e8 da d6 ff ff       	callq  10000031 <fail>
    10002957:	48 8d 45 e0          	lea    -0x20(%rbp),%rax
    1000295b:	48 89 45 e8          	mov    %rax,-0x18(%rbp)
    1000295f:	c7 45 e4 01 00 00 00 	movl   $0x1,-0x1c(%rbp)
    10002966:	48 8b 45 e8          	mov    -0x18(%rbp),%rax
    1000296a:	8b 55 e4             	mov    -0x1c(%rbp),%edx
    1000296d:	89 10                	mov    %edx,(%rax)
    1000296f:	8b 45 e0             	mov    -0x20(%rbp),%eax
    10002972:	c9                   	leaveq 
    10002973:	c3                   	retq   

0000000010002974 <read_arg>:
    10002974:	55                   	push   %rbp
    10002975:	48 89 e5             	mov    %rsp,%rbp
    10002978:	48 83 ec 30          	sub    $0x30,%rsp
    1000297c:	48 89 7d d8          	mov    %rdi,-0x28(%rbp)
    10002980:	48 8b 45 d8          	mov    -0x28(%rbp),%rax
    10002984:	48 89 c7             	mov    %rax,%rdi
    10002987:	e8 42 03 00 00       	callq  10002cce <read_input>
    1000298c:	48 89 45 f8          	mov    %rax,-0x8(%rbp)
    10002990:	48 8b 45 f8          	mov    -0x8(%rbp),%rax
    10002994:	48 85 c0             	test   %rax,%rax
    10002997:	74 08                	je     100029a1 <read_arg+0x2d>
    10002999:	48 83 f8 01          	cmp    $0x1,%rax
    1000299d:	74 1c                	je     100029bb <read_arg+0x47>
    1000299f:	eb 34                	jmp    100029d5 <read_arg+0x61>
    100029a1:	48 8d 4d e0          	lea    -0x20(%rbp),%rcx
    100029a5:	48 8d 55 e8          	lea    -0x18(%rbp),%rdx
    100029a9:	48 8d 75 f0          	lea    -0x10(%rbp),%rsi
    100029ad:	48 8b 45 d8          	mov    -0x28(%rbp),%rax
    100029b1:	48 89 c7             	mov    %rax,%rdi
    100029b4:	e8 34 00 00 00       	callq  100029ed <read_const_arg>
    100029b9:	eb 30                	jmp    100029eb <read_arg+0x77>
    100029bb:	48 8b 45 d8          	mov    -0x28(%rbp),%rax
    100029bf:	48 89 c7             	mov    %rax,%rdi
    100029c2:	e8 07 03 00 00       	callq  10002cce <read_input>
    100029c7:	48 8b 45 d8          	mov    -0x28(%rbp),%rax
    100029cb:	48 89 c7             	mov    %rax,%rdi
    100029ce:	e8 ee 01 00 00       	callq  10002bc1 <read_result>
    100029d3:	eb 16                	jmp    100029eb <read_arg+0x77>
    100029d5:	48 8b 45 f8          	mov    -0x8(%rbp),%rax
    100029d9:	48 89 c6             	mov    %rax,%rsi
    100029dc:	bf 48 69 00 10       	mov    $0x10006948,%edi
    100029e1:	b8 00 00 00 00       	mov    $0x0,%eax
    100029e6:	e8 46 d6 ff ff       	callq  10000031 <fail>
    100029eb:	c9                   	leaveq 
    100029ec:	c3                   	retq   

00000000100029ed <read_const_arg>:
    100029ed:	55                   	push   %rbp
    100029ee:	48 89 e5             	mov    %rsp,%rbp
    100029f1:	48 83 ec 40          	sub    $0x40,%rsp
    100029f5:	48 89 7d d8          	mov    %rdi,-0x28(%rbp)
    100029f9:	48 89 75 d0          	mov    %rsi,-0x30(%rbp)
    100029fd:	48 89 55 c8          	mov    %rdx,-0x38(%rbp)
    10002a01:	48 89 4d c0          	mov    %rcx,-0x40(%rbp)
    10002a05:	48 8b 45 d8          	mov    -0x28(%rbp),%rax
    10002a09:	48 89 c7             	mov    %rax,%rdi
    10002a0c:	e8 bd 02 00 00       	callq  10002cce <read_input>
    10002a11:	48 89 45 f0          	mov    %rax,-0x10(%rbp)
    10002a15:	48 8b 45 d8          	mov    -0x28(%rbp),%rax
    10002a19:	48 89 c7             	mov    %rax,%rdi
    10002a1c:	e8 ad 02 00 00       	callq  10002cce <read_input>
    10002a21:	48 89 45 f8          	mov    %rax,-0x8(%rbp)
    10002a25:	48 8b 45 f0          	mov    -0x10(%rbp),%rax
    10002a29:	0f b6 d0             	movzbl %al,%edx
    10002a2c:	48 8b 45 d0          	mov    -0x30(%rbp),%rax
    10002a30:	48 89 10             	mov    %rdx,(%rax)
    10002a33:	48 8b 45 f0          	mov    -0x10(%rbp),%rax
    10002a37:	25 00 01 00 00       	and    $0x100,%eax
    10002a3c:	89 45 ec             	mov    %eax,-0x14(%rbp)
    10002a3f:	48 8b 45 f0          	mov    -0x10(%rbp),%rax
    10002a43:	48 c1 e8 10          	shr    $0x10,%rax
    10002a47:	0f b6 d0             	movzbl %al,%edx
    10002a4a:	48 8b 45 c8          	mov    -0x38(%rbp),%rax
    10002a4e:	48 89 10             	mov    %rdx,(%rax)
    10002a51:	48 8b 45 f0          	mov    -0x10(%rbp),%rax
    10002a55:	48 c1 e8 18          	shr    $0x18,%rax
    10002a59:	0f b6 d0             	movzbl %al,%edx
    10002a5c:	48 8b 45 c0          	mov    -0x40(%rbp),%rax
    10002a60:	48 89 10             	mov    %rdx,(%rax)
    10002a63:	48 8b 45 f0          	mov    -0x10(%rbp),%rax
    10002a67:	48 c1 e8 20          	shr    $0x20,%rax
    10002a6b:	48 89 45 e0          	mov    %rax,-0x20(%rbp)
    10002a6f:	48 8b 05 a2 d5 01 00 	mov    0x1d5a2(%rip),%rax        # 10020018 <procid>
    10002a76:	48 0f af 45 e0       	imul   -0x20(%rbp),%rax
    10002a7b:	48 01 45 f8          	add    %rax,-0x8(%rbp)
    10002a7f:	83 7d ec 00          	cmpl   $0x0,-0x14(%rbp)
    10002a83:	0f 84 31 01 00 00    	je     10002bba <read_const_arg+0x1cd>
    10002a89:	48 8b 45 d0          	mov    -0x30(%rbp),%rax
    10002a8d:	48 8b 00             	mov    (%rax),%rax
    10002a90:	48 83 f8 04          	cmp    $0x4,%rax
    10002a94:	74 32                	je     10002ac8 <read_const_arg+0xdb>
    10002a96:	48 83 f8 08          	cmp    $0x8,%rax
    10002a9a:	74 75                	je     10002b11 <read_const_arg+0x124>
    10002a9c:	48 83 f8 02          	cmp    $0x2,%rax
    10002aa0:	0f 85 fc 00 00 00    	jne    10002ba2 <read_const_arg+0x1b5>
    10002aa6:	48 8b 45 f8          	mov    -0x8(%rbp),%rax
    10002aaa:	48 c1 e0 08          	shl    $0x8,%rax
    10002aae:	0f b7 d0             	movzwl %ax,%edx
    10002ab1:	48 8b 45 f8          	mov    -0x8(%rbp),%rax
    10002ab5:	48 c1 e8 08          	shr    $0x8,%rax
    10002ab9:	0f b6 c0             	movzbl %al,%eax
    10002abc:	48 09 d0             	or     %rdx,%rax
    10002abf:	48 89 45 f8          	mov    %rax,-0x8(%rbp)
    10002ac3:	e9 f3 00 00 00       	jmpq   10002bbb <read_const_arg+0x1ce>
    10002ac8:	48 8b 45 f8          	mov    -0x8(%rbp),%rax
    10002acc:	48 c1 e0 08          	shl    $0x8,%rax
    10002ad0:	0f b7 d0             	movzwl %ax,%edx
    10002ad3:	48 8b 45 f8          	mov    -0x8(%rbp),%rax
    10002ad7:	48 c1 e8 08          	shr    $0x8,%rax
    10002adb:	0f b6 c0             	movzbl %al,%eax
    10002ade:	48 09 d0             	or     %rdx,%rax
    10002ae1:	48 c1 e0 10          	shl    $0x10,%rax
    10002ae5:	48 89 c1             	mov    %rax,%rcx
    10002ae8:	48 8b 45 f8          	mov    -0x8(%rbp),%rax
    10002aec:	48 c1 e8 10          	shr    $0x10,%rax
    10002af0:	48 c1 e0 08          	shl    $0x8,%rax
    10002af4:	0f b7 d0             	movzwl %ax,%edx
    10002af7:	48 8b 45 f8          	mov    -0x8(%rbp),%rax
    10002afb:	48 c1 e8 18          	shr    $0x18,%rax
    10002aff:	0f b6 c0             	movzbl %al,%eax
    10002b02:	48 09 d0             	or     %rdx,%rax
    10002b05:	48 09 c8             	or     %rcx,%rax
    10002b08:	48 89 45 f8          	mov    %rax,-0x8(%rbp)
    10002b0c:	e9 aa 00 00 00       	jmpq   10002bbb <read_const_arg+0x1ce>
    10002b11:	48 8b 45 f8          	mov    -0x8(%rbp),%rax
    10002b15:	48 c1 e0 08          	shl    $0x8,%rax
    10002b19:	0f b7 d0             	movzwl %ax,%edx
    10002b1c:	48 8b 45 f8          	mov    -0x8(%rbp),%rax
    10002b20:	48 c1 e8 08          	shr    $0x8,%rax
    10002b24:	0f b6 c0             	movzbl %al,%eax
    10002b27:	48 09 d0             	or     %rdx,%rax
    10002b2a:	48 c1 e0 10          	shl    $0x10,%rax
    10002b2e:	48 89 c1             	mov    %rax,%rcx
    10002b31:	48 8b 45 f8          	mov    -0x8(%rbp),%rax
    10002b35:	48 c1 e8 10          	shr    $0x10,%rax
    10002b39:	48 c1 e0 08          	shl    $0x8,%rax
    10002b3d:	0f b7 d0             	movzwl %ax,%edx
    10002b40:	48 8b 45 f8          	mov    -0x8(%rbp),%rax
    10002b44:	48 c1 e8 18          	shr    $0x18,%rax
    10002b48:	0f b6 c0             	movzbl %al,%eax
    10002b4b:	48 09 d0             	or     %rdx,%rax
    10002b4e:	48 09 c8             	or     %rcx,%rax
    10002b51:	48 c1 e0 20          	shl    $0x20,%rax
    10002b55:	48 89 c1             	mov    %rax,%rcx
    10002b58:	48 8b 45 f8          	mov    -0x8(%rbp),%rax
    10002b5c:	48 c1 e8 20          	shr    $0x20,%rax
    10002b60:	48 c1 e0 08          	shl    $0x8,%rax
    10002b64:	0f b7 d0             	movzwl %ax,%edx
    10002b67:	48 8b 45 f8          	mov    -0x8(%rbp),%rax
    10002b6b:	48 c1 e8 28          	shr    $0x28,%rax
    10002b6f:	0f b6 c0             	movzbl %al,%eax
    10002b72:	48 09 d0             	or     %rdx,%rax
    10002b75:	48 c1 e0 10          	shl    $0x10,%rax
    10002b79:	48 89 c6             	mov    %rax,%rsi
    10002b7c:	48 8b 45 f8          	mov    -0x8(%rbp),%rax
    10002b80:	48 c1 e8 30          	shr    $0x30,%rax
    10002b84:	48 c1 e0 08          	shl    $0x8,%rax
    10002b88:	0f b7 c0             	movzwl %ax,%eax
    10002b8b:	48 8b 55 f8          	mov    -0x8(%rbp),%rdx
    10002b8f:	48 c1 ea 38          	shr    $0x38,%rdx
    10002b93:	48 09 d0             	or     %rdx,%rax
    10002b96:	48 09 f0             	or     %rsi,%rax
    10002b99:	48 09 c8             	or     %rcx,%rax
    10002b9c:	48 89 45 f8          	mov    %rax,-0x8(%rbp)
    10002ba0:	eb 19                	jmp    10002bbb <read_const_arg+0x1ce>
    10002ba2:	48 8b 45 d0          	mov    -0x30(%rbp),%rax
    10002ba6:	48 8b 00             	mov    (%rax),%rax
    10002ba9:	89 c6                	mov    %eax,%esi
    10002bab:	bf 88 6c 00 10       	mov    $0x10006c88,%edi
    10002bb0:	b8 00 00 00 00       	mov    $0x0,%eax
    10002bb5:	e8 77 d4 ff ff       	callq  10000031 <fail>
    10002bba:	90                   	nop
    10002bbb:	48 8b 45 f8          	mov    -0x8(%rbp),%rax
    10002bbf:	c9                   	leaveq 
    10002bc0:	c3                   	retq   

0000000010002bc1 <read_result>:
    10002bc1:	55                   	push   %rbp
    10002bc2:	48 89 e5             	mov    %rsp,%rbp
    10002bc5:	48 83 ec 30          	sub    $0x30,%rsp
    10002bc9:	48 89 7d d8          	mov    %rdi,-0x28(%rbp)
    10002bcd:	48 8b 45 d8          	mov    -0x28(%rbp),%rax
    10002bd1:	48 89 c7             	mov    %rax,%rdi
    10002bd4:	e8 f5 00 00 00       	callq  10002cce <read_input>
    10002bd9:	48 89 45 f0          	mov    %rax,-0x10(%rbp)
    10002bdd:	48 8b 45 d8          	mov    -0x28(%rbp),%rax
    10002be1:	48 89 c7             	mov    %rax,%rdi
    10002be4:	e8 e5 00 00 00       	callq  10002cce <read_input>
    10002be9:	48 89 45 e8          	mov    %rax,-0x18(%rbp)
    10002bed:	48 8b 45 d8          	mov    -0x28(%rbp),%rax
    10002bf1:	48 89 c7             	mov    %rax,%rdi
    10002bf4:	e8 d5 00 00 00       	callq  10002cce <read_input>
    10002bf9:	48 89 45 e0          	mov    %rax,-0x20(%rbp)
    10002bfd:	48 8b 45 d8          	mov    -0x28(%rbp),%rax
    10002c01:	48 89 c7             	mov    %rax,%rdi
    10002c04:	e8 c5 00 00 00       	callq  10002cce <read_input>
    10002c09:	48 89 45 f8          	mov    %rax,-0x8(%rbp)
    10002c0d:	48 81 7d f0 e7 03 00 	cmpq   $0x3e7,-0x10(%rbp)
    10002c14:	00 
    10002c15:	76 16                	jbe    10002c2d <read_result+0x6c>
    10002c17:	48 8b 45 f0          	mov    -0x10(%rbp),%rax
    10002c1b:	48 89 c6             	mov    %rax,%rsi
    10002c1e:	bf a8 6c 00 10       	mov    $0x10006ca8,%edi
    10002c23:	b8 00 00 00 00       	mov    $0x0,%eax
    10002c28:	e8 04 d4 ff ff       	callq  10000031 <fail>
    10002c2d:	48 8b 45 f0          	mov    -0x10(%rbp),%rax
    10002c31:	48 c1 e0 04          	shl    $0x4,%rax
    10002c35:	48 05 20 00 14 11    	add    $0x11140020,%rax
    10002c3b:	8b 00                	mov    (%rax),%eax
    10002c3d:	85 c0                	test   %eax,%eax
    10002c3f:	74 35                	je     10002c76 <read_result+0xb5>
    10002c41:	48 8b 45 f0          	mov    -0x10(%rbp),%rax
    10002c45:	48 c1 e0 04          	shl    $0x4,%rax
    10002c49:	48 05 28 00 14 11    	add    $0x11140028,%rax
    10002c4f:	48 8b 00             	mov    (%rax),%rax
    10002c52:	48 89 45 f8          	mov    %rax,-0x8(%rbp)
    10002c56:	48 83 7d e8 00       	cmpq   $0x0,-0x18(%rbp)
    10002c5b:	74 11                	je     10002c6e <read_result+0xad>
    10002c5d:	48 8b 45 f8          	mov    -0x8(%rbp),%rax
    10002c61:	ba 00 00 00 00       	mov    $0x0,%edx
    10002c66:	48 f7 75 e8          	divq   -0x18(%rbp)
    10002c6a:	48 89 45 f8          	mov    %rax,-0x8(%rbp)
    10002c6e:	48 8b 45 e0          	mov    -0x20(%rbp),%rax
    10002c72:	48 01 45 f8          	add    %rax,-0x8(%rbp)
    10002c76:	48 8b 45 f8          	mov    -0x8(%rbp),%rax
    10002c7a:	c9                   	leaveq 
    10002c7b:	c3                   	retq   

0000000010002c7c <read_input2>:
    10002c7c:	55                   	push   %rbp
    10002c7d:	48 89 e5             	mov    %rsp,%rbp
    10002c80:	48 83 ec 20          	sub    $0x20,%rsp
    10002c84:	48 89 7d e8          	mov    %rdi,-0x18(%rbp)
    10002c88:	89 75 e4             	mov    %esi,-0x1c(%rbp)
    10002c8b:	48 8b 45 e8          	mov    -0x18(%rbp),%rax
    10002c8f:	48 8b 00             	mov    (%rax),%rax
    10002c92:	48 89 45 f8          	mov    %rax,-0x8(%rbp)
    10002c96:	b8 00 00 14 11       	mov    $0x11140000,%eax
    10002c9b:	48 39 45 f8          	cmp    %rax,-0x8(%rbp)
    10002c9f:	72 0f                	jb     10002cb0 <read_input2+0x34>
    10002ca1:	bf ca 6c 00 10       	mov    $0x10006cca,%edi
    10002ca6:	b8 00 00 00 00       	mov    $0x0,%eax
    10002cab:	e8 81 d3 ff ff       	callq  10000031 <fail>
    10002cb0:	83 7d e4 00          	cmpl   $0x0,-0x1c(%rbp)
    10002cb4:	75 0f                	jne    10002cc5 <read_input2+0x49>
    10002cb6:	48 8b 45 f8          	mov    -0x8(%rbp),%rax
    10002cba:	48 8d 50 08          	lea    0x8(%rax),%rdx
    10002cbe:	48 8b 45 e8          	mov    -0x18(%rbp),%rax
    10002cc2:	48 89 10             	mov    %rdx,(%rax)
    10002cc5:	48 8b 45 f8          	mov    -0x8(%rbp),%rax
    10002cc9:	48 8b 00             	mov    (%rax),%rax
    10002ccc:	c9                   	leaveq 
    10002ccd:	c3                   	retq   

0000000010002cce <read_input>:
    10002cce:	55                   	push   %rbp
    10002ccf:	48 89 e5             	mov    %rsp,%rbp
    10002cd2:	48 83 ec 20          	sub    $0x20,%rsp
    10002cd6:	48 89 7d e8          	mov    %rdi,-0x18(%rbp)
    10002cda:	48 8b 45 e8          	mov    -0x18(%rbp),%rax
    10002cde:	48 8b 00             	mov    (%rax),%rax
    10002ce1:	48 89 45 f8          	mov    %rax,-0x8(%rbp)
    10002ce5:	b8 00 00 14 11       	mov    $0x11140000,%eax
    10002cea:	48 39 45 f8          	cmp    %rax,-0x8(%rbp)
    10002cee:	72 0f                	jb     10002cff <read_input+0x31>
    10002cf0:	bf ca 6c 00 10       	mov    $0x10006cca,%edi
    10002cf5:	b8 00 00 00 00       	mov    $0x0,%eax
    10002cfa:	e8 32 d3 ff ff       	callq  10000031 <fail>
    10002cff:	48 8b 45 f8          	mov    -0x8(%rbp),%rax
    10002d03:	48 8d 50 08          	lea    0x8(%rax),%rdx
    10002d07:	48 8b 45 e8          	mov    -0x18(%rbp),%rax
    10002d0b:	48 89 10             	mov    %rdx,(%rax)
    10002d0e:	48 8b 45 f8          	mov    -0x8(%rbp),%rax
    10002d12:	48 8b 00             	mov    (%rax),%rax
    10002d15:	c9                   	leaveq 
    10002d16:	c3                   	retq   

0000000010002d17 <main>:
    10002d17:	55                   	push   %rbp
    10002d18:	48 89 e5             	mov    %rsp,%rbp
    10002d1b:	48 83 ec 20          	sub    $0x20,%rsp
    10002d1f:	89 7d ec             	mov    %edi,-0x14(%rbp)
    10002d22:	48 89 75 e0          	mov    %rsi,-0x20(%rbp)
    10002d26:	be f0 6d 00 10       	mov    $0x10006df0,%esi
    10002d2b:	bf 01 00 00 00       	mov    $0x1,%edi
    10002d30:	b8 00 00 00 00       	mov    $0x0,%eax
    10002d35:	e8 19 10 00 00       	callq  10003d53 <fprintf>
    10002d3a:	bf 01 00 00 00       	mov    $0x1,%edi
    10002d3f:	e8 2a 1d 00 00       	callq  10004a6e <sem_init>
    10002d44:	48 89 05 dd d2 24 01 	mov    %rax,0x124d2dd(%rip)        # 11250028 <output_data_mutex>
    10002d4b:	bf 01 00 00 00       	mov    $0x1,%edi
    10002d50:	e8 19 1d 00 00       	callq  10004a6e <sem_init>
    10002d55:	48 89 05 ac d2 01 00 	mov    %rax,0x1d2ac(%rip)        # 10020008 <debug_mutex>
    10002d5c:	b8 00 00 00 00       	mov    $0x0,%eax
    10002d61:	e8 d3 03 00 00       	callq  10003139 <detect_kernel_bitness>
    10002d66:	89 05 98 52 00 00    	mov    %eax,0x5298(%rip)        # 10008004 <is_kernel_64_bit>
    10002d6c:	83 7d ec 02          	cmpl   $0x2,-0x14(%rbp)
    10002d70:	75 30                	jne    10002da2 <main+0x8b>
    10002d72:	48 8b 45 e0          	mov    -0x20(%rbp),%rax
    10002d76:	48 83 c0 08          	add    $0x8,%rax
    10002d7a:	48 8b 00             	mov    (%rax),%rax
    10002d7d:	be ff 6d 00 10       	mov    $0x10006dff,%esi
    10002d82:	48 89 c7             	mov    %rax,%rdi
    10002d85:	e8 4a 2e 00 00       	callq  10005bd4 <strcmp>
    10002d8a:	85 c0                	test   %eax,%eax
    10002d8c:	75 14                	jne    10002da2 <main+0x8b>
    10002d8e:	bf 08 6e 00 10       	mov    $0x10006e08,%edi
    10002d93:	e8 ed 0e 00 00       	callq  10003c85 <cputs>
    10002d98:	b8 00 00 00 00       	mov    $0x0,%eax
    10002d9d:	e9 de 01 00 00       	jmpq   10002f80 <main+0x269>
    10002da2:	bf 47 6e 00 10       	mov    $0x10006e47,%edi
    10002da7:	b8 00 00 00 00       	mov    $0x0,%eax
    10002dac:	e8 27 0e 00 00       	callq  10003bd8 <cprintf>
    10002db1:	bf 59 6e 00 10       	mov    $0x10006e59,%edi
    10002db6:	b8 00 00 00 00       	mov    $0x0,%eax
    10002dbb:	e8 dc d4 ff ff       	callq  1000029c <debug>
    10002dc0:	48 b8 00 00 c2 2b 1b 	movabs $0x1b2bc20000,%rax
    10002dc7:	00 00 00 
    10002dca:	41 b9 00 00 00 00    	mov    $0x0,%r9d
    10002dd0:	41 b8 ff ff ff ff    	mov    $0xffffffff,%r8d
    10002dd6:	b9 31 00 00 00       	mov    $0x31,%ecx
    10002ddb:	ba 03 00 00 00       	mov    $0x3,%edx
    10002de0:	be 00 00 00 01       	mov    $0x1000000,%esi
    10002de5:	48 89 c7             	mov    %rax,%rdi
    10002de8:	e8 98 18 00 00       	callq  10004685 <sys_linux_mmap>
    10002ded:	48 89 05 1c d2 24 01 	mov    %rax,0x124d21c(%rip)        # 11250010 <output_data>
    10002df4:	48 8b 15 15 d2 24 01 	mov    0x124d215(%rip),%rdx        # 11250010 <output_data>
    10002dfb:	48 b8 00 00 c2 2b 1b 	movabs $0x1b2bc20000,%rax
    10002e02:	00 00 00 
    10002e05:	48 39 c2             	cmp    %rax,%rdx
    10002e08:	74 0f                	je     10002e19 <main+0x102>
    10002e0a:	bf 63 6e 00 10       	mov    $0x10006e63,%edi
    10002e0f:	b8 00 00 00 00       	mov    $0x0,%eax
    10002e14:	e8 18 d2 ff ff       	callq  10000031 <fail>
    10002e19:	41 b9 00 00 00 00    	mov    $0x0,%r9d
    10002e1f:	41 b8 ff ff ff ff    	mov    $0xffffffff,%r8d
    10002e25:	b9 32 00 00 00       	mov    $0x32,%ecx
    10002e2a:	ba 03 00 00 00       	mov    $0x3,%edx
    10002e2f:	be 00 00 00 01       	mov    $0x1000000,%esi
    10002e34:	bf 00 00 00 20       	mov    $0x20000000,%edi
    10002e39:	e8 47 18 00 00       	callq  10004685 <sys_linux_mmap>
    10002e3e:	48 3d 00 00 00 20    	cmp    $0x20000000,%rax
    10002e44:	74 0f                	je     10002e55 <main+0x13e>
    10002e46:	bf 7e 6e 00 10       	mov    $0x10006e7e,%edi
    10002e4b:	b8 00 00 00 00       	mov    $0x0,%eax
    10002e50:	e8 dc d1 ff ff       	callq  10000031 <fail>
    10002e55:	bf 9a 6e 00 10       	mov    $0x10006e9a,%edi
    10002e5a:	b8 00 00 00 00       	mov    $0x0,%eax
    10002e5f:	e8 38 d4 ff ff       	callq  1000029c <debug>
    10002e64:	b8 00 00 00 00       	mov    $0x0,%eax
    10002e69:	e8 03 e1 ff ff       	callq  10000f71 <setup_control_pipes>
    10002e6e:	b8 00 00 00 00       	mov    $0x0,%eax
    10002e73:	e8 88 e1 ff ff       	callq  10001000 <receive_handshake>
    10002e78:	bf ad 6e 00 10       	mov    $0x10006ead,%edi
    10002e7d:	b8 00 00 00 00       	mov    $0x0,%eax
    10002e82:	e8 15 d4 ff ff       	callq  1000029c <debug>
    10002e87:	b8 00 00 00 00       	mov    $0x0,%eax
    10002e8c:	e8 da d5 ff ff       	callq  1000046b <install_segv_handler>
    10002e91:	b8 00 00 00 00       	mov    $0x0,%eax
    10002e96:	e8 fe d5 ff ff       	callq  10000499 <use_temporary_dir>
    10002e9b:	c7 45 fc ff ff ff ff 	movl   $0xffffffff,-0x4(%rbp)
    10002ea2:	e8 76 d9 ff ff       	callq  1000081d <do_sandbox_none>
    10002ea7:	89 45 fc             	mov    %eax,-0x4(%rbp)
    10002eaa:	83 7d fc 00          	cmpl   $0x0,-0x4(%rbp)
    10002eae:	79 0f                	jns    10002ebf <main+0x1a8>
    10002eb0:	bf 91 65 00 10       	mov    $0x10006591,%edi
    10002eb5:	b8 00 00 00 00       	mov    $0x0,%eax
    10002eba:	e8 72 d1 ff ff       	callq  10000031 <fail>
    10002ebf:	8b 45 fc             	mov    -0x4(%rbp),%eax
    10002ec2:	89 c6                	mov    %eax,%esi
    10002ec4:	bf c1 6e 00 10       	mov    $0x10006ec1,%edi
    10002ec9:	b8 00 00 00 00       	mov    $0x0,%eax
    10002ece:	e8 c9 d3 ff ff       	callq  1000029c <debug>
    10002ed3:	c7 45 f8 00 00 00 00 	movl   $0x0,-0x8(%rbp)
    10002eda:	90                   	nop
    10002edb:	48 8d 45 f8          	lea    -0x8(%rbp),%rax
    10002edf:	ba 00 00 00 00       	mov    $0x0,%edx
    10002ee4:	48 89 c6             	mov    %rax,%rsi
    10002ee7:	bf ff ff ff ff       	mov    $0xffffffff,%edi
    10002eec:	e8 7e 1a 00 00       	callq  1000496f <waitpid>
    10002ef1:	39 45 fc             	cmp    %eax,-0x4(%rbp)
    10002ef4:	75 e5                	jne    10002edb <main+0x1c4>
    10002ef6:	8b 45 f8             	mov    -0x8(%rbp),%eax
    10002ef9:	c1 f8 08             	sar    $0x8,%eax
    10002efc:	0f b6 c0             	movzbl %al,%eax
    10002eff:	89 45 f8             	mov    %eax,-0x8(%rbp)
    10002f02:	8b 45 f8             	mov    -0x8(%rbp),%eax
    10002f05:	ba 43 00 00 00       	mov    $0x43,%edx
    10002f0a:	39 d0                	cmp    %edx,%eax
    10002f0c:	74 14                	je     10002f22 <main+0x20b>
    10002f0e:	8b 45 f8             	mov    -0x8(%rbp),%eax
    10002f11:	ba 44 00 00 00       	mov    $0x44,%edx
    10002f16:	39 d0                	cmp    %edx,%eax
    10002f18:	74 08                	je     10002f22 <main+0x20b>
    10002f1a:	b8 45 00 00 00       	mov    $0x45,%eax
    10002f1f:	89 45 f8             	mov    %eax,-0x8(%rbp)
    10002f22:	8b 45 f8             	mov    -0x8(%rbp),%eax
    10002f25:	89 c7                	mov    %eax,%edi
    10002f27:	e8 8a e3 ff ff       	callq  100012b6 <reply_execute>
    10002f2c:	c7 05 a2 d1 00 00 00 	movl   $0x0,0xd1a2(%rip)        # 100100d8 <errno>
    10002f33:	00 00 00 
    10002f36:	8b 45 f8             	mov    -0x8(%rbp),%eax
    10002f39:	ba 43 00 00 00       	mov    $0x43,%edx
    10002f3e:	39 d0                	cmp    %edx,%eax
    10002f40:	75 0f                	jne    10002f51 <main+0x23a>
    10002f42:	bf d6 6e 00 10       	mov    $0x10006ed6,%edi
    10002f47:	b8 00 00 00 00       	mov    $0x0,%eax
    10002f4c:	e8 e0 d0 ff ff       	callq  10000031 <fail>
    10002f51:	8b 45 f8             	mov    -0x8(%rbp),%eax
    10002f54:	ba 44 00 00 00       	mov    $0x44,%edx
    10002f59:	39 d0                	cmp    %edx,%eax
    10002f5b:	75 0f                	jne    10002f6c <main+0x255>
    10002f5d:	bf e2 6e 00 10       	mov    $0x10006ee2,%edi
    10002f62:	b8 00 00 00 00       	mov    $0x0,%eax
    10002f67:	e8 9a d1 ff ff       	callq  10000106 <error>
    10002f6c:	8b 45 f8             	mov    -0x8(%rbp),%eax
    10002f6f:	89 c6                	mov    %eax,%esi
    10002f71:	bf ef 6e 00 10       	mov    $0x10006eef,%edi
    10002f76:	b8 00 00 00 00       	mov    $0x0,%eax
    10002f7b:	e8 47 d2 ff ff       	callq  100001c7 <exitf>
    10002f80:	c9                   	leaveq 
    10002f81:	c3                   	retq   

0000000010002f82 <execute_syscall>:
    10002f82:	55                   	push   %rbp
    10002f83:	48 89 e5             	mov    %rsp,%rbp
    10002f86:	48 83 ec 30          	sub    $0x30,%rsp
    10002f8a:	48 89 7d f8          	mov    %rdi,-0x8(%rbp)
    10002f8e:	48 89 75 f0          	mov    %rsi,-0x10(%rbp)
    10002f92:	48 89 55 e8          	mov    %rdx,-0x18(%rbp)
    10002f96:	48 89 4d e0          	mov    %rcx,-0x20(%rbp)
    10002f9a:	4c 89 45 d8          	mov    %r8,-0x28(%rbp)
    10002f9e:	4c 89 4d d0          	mov    %r9,-0x30(%rbp)
    10002fa2:	48 8b 45 f8          	mov    -0x8(%rbp),%rax
    10002fa6:	48 8b 40 10          	mov    0x10(%rax),%rax
    10002faa:	48 85 c0             	test   %rax,%rax
    10002fad:	74 35                	je     10002fe4 <execute_syscall+0x62>
    10002faf:	48 8b 45 f8          	mov    -0x8(%rbp),%rax
    10002fb3:	48 8b 40 10          	mov    0x10(%rax),%rax
    10002fb7:	4c 8b 45 d0          	mov    -0x30(%rbp),%r8
    10002fbb:	48 8b 4d d8          	mov    -0x28(%rbp),%rcx
    10002fbf:	48 8b 55 e0          	mov    -0x20(%rbp),%rdx
    10002fc3:	48 8b 75 e8          	mov    -0x18(%rbp),%rsi
    10002fc7:	48 8b 7d f0          	mov    -0x10(%rbp),%rdi
    10002fcb:	48 83 ec 08          	sub    $0x8,%rsp
    10002fcf:	ff 75 28             	pushq  0x28(%rbp)
    10002fd2:	ff 75 20             	pushq  0x20(%rbp)
    10002fd5:	ff 75 18             	pushq  0x18(%rbp)
    10002fd8:	4c 8b 4d 10          	mov    0x10(%rbp),%r9
    10002fdc:	ff d0                	callq  *%rax
    10002fde:	48 83 c4 20          	add    $0x20,%rsp
    10002fe2:	eb 38                	jmp    1000301c <execute_syscall+0x9a>
    10002fe4:	48 8b 45 f8          	mov    -0x8(%rbp),%rax
    10002fe8:	8b 40 08             	mov    0x8(%rax),%eax
    10002feb:	4c 8b 45 d0          	mov    -0x30(%rbp),%r8
    10002fef:	48 8b 7d d8          	mov    -0x28(%rbp),%rdi
    10002ff3:	48 8b 4d e0          	mov    -0x20(%rbp),%rcx
    10002ff7:	48 8b 55 e8          	mov    -0x18(%rbp),%rdx
    10002ffb:	48 8b 75 f0          	mov    -0x10(%rbp),%rsi
    10002fff:	48 83 ec 08          	sub    $0x8,%rsp
    10003003:	ff 75 10             	pushq  0x10(%rbp)
    10003006:	4d 89 c1             	mov    %r8,%r9
    10003009:	49 89 f8             	mov    %rdi,%r8
    1000300c:	89 c7                	mov    %eax,%edi
    1000300e:	b8 00 00 00 00       	mov    $0x0,%eax
    10003013:	e8 a2 30 00 00       	callq  100060ba <syscall>
    10003018:	48 83 c4 10          	add    $0x10,%rsp
    1000301c:	c9                   	leaveq 
    1000301d:	c3                   	retq   

000000001000301e <cover_open>:
    1000301e:	55                   	push   %rbp
    1000301f:	48 89 e5             	mov    %rsp,%rbp
    10003022:	8b 05 fc cf 01 00    	mov    0x1cffc(%rip),%eax        # 10020024 <flag_cover>
    10003028:	85 c0                	test   %eax,%eax
    1000302a:	5d                   	pop    %rbp
    1000302b:	c3                   	retq   

000000001000302c <cover_enable>:
    1000302c:	55                   	push   %rbp
    1000302d:	48 89 e5             	mov    %rsp,%rbp
    10003030:	48 89 7d f8          	mov    %rdi,-0x8(%rbp)
    10003034:	8b 05 ea cf 01 00    	mov    0x1cfea(%rip),%eax        # 10020024 <flag_cover>
    1000303a:	85 c0                	test   %eax,%eax
    1000303c:	5d                   	pop    %rbp
    1000303d:	c3                   	retq   

000000001000303e <cover_reset>:
    1000303e:	55                   	push   %rbp
    1000303f:	48 89 e5             	mov    %rsp,%rbp
    10003042:	48 89 7d f8          	mov    %rdi,-0x8(%rbp)
    10003046:	8b 05 d8 cf 01 00    	mov    0x1cfd8(%rip),%eax        # 10020024 <flag_cover>
    1000304c:	85 c0                	test   %eax,%eax
    1000304e:	5d                   	pop    %rbp
    1000304f:	c3                   	retq   

0000000010003050 <read_cover_size>:
    10003050:	55                   	push   %rbp
    10003051:	48 89 e5             	mov    %rsp,%rbp
    10003054:	48 89 7d f8          	mov    %rdi,-0x8(%rbp)
    10003058:	8b 05 c6 cf 01 00    	mov    0x1cfc6(%rip),%eax        # 10020024 <flag_cover>
    1000305e:	85 c0                	test   %eax,%eax
    10003060:	75 07                	jne    10003069 <read_cover_size+0x19>
    10003062:	b8 00 00 00 00       	mov    $0x0,%eax
    10003067:	eb 00                	jmp    10003069 <read_cover_size+0x19>
    10003069:	5d                   	pop    %rbp
    1000306a:	c3                   	retq   

000000001000306b <write_output>:
    1000306b:	55                   	push   %rbp
    1000306c:	48 89 e5             	mov    %rsp,%rbp
    1000306f:	48 83 ec 10          	sub    $0x10,%rsp
    10003073:	89 7d fc             	mov    %edi,-0x4(%rbp)
    10003076:	8b 05 8c cf 13 01    	mov    0x113cf8c(%rip),%eax        # 11140008 <collide>
    1000307c:	85 c0                	test   %eax,%eax
    1000307e:	74 07                	je     10003087 <write_output+0x1c>
    10003080:	b8 00 00 00 00       	mov    $0x0,%eax
    10003085:	eb 5a                	jmp    100030e1 <write_output+0x76>
    10003087:	48 8b 15 92 cf 24 01 	mov    0x124cf92(%rip),%rdx        # 11250020 <output_pos>
    1000308e:	48 8b 05 7b cf 24 01 	mov    0x124cf7b(%rip),%rax        # 11250010 <output_data>
    10003095:	48 39 c2             	cmp    %rax,%rdx
    10003098:	72 1a                	jb     100030b4 <write_output+0x49>
    1000309a:	48 8b 05 6f cf 24 01 	mov    0x124cf6f(%rip),%rax        # 11250010 <output_data>
    100030a1:	48 8d 90 00 00 00 01 	lea    0x1000000(%rax),%rdx
    100030a8:	48 8b 05 71 cf 24 01 	mov    0x124cf71(%rip),%rax        # 11250020 <output_pos>
    100030af:	48 39 c2             	cmp    %rax,%rdx
    100030b2:	77 0f                	ja     100030c3 <write_output+0x58>
    100030b4:	bf 0a 6f 00 10       	mov    $0x10006f0a,%edi
    100030b9:	b8 00 00 00 00       	mov    $0x0,%eax
    100030be:	e8 6e cf ff ff       	callq  10000031 <fail>
    100030c3:	48 8b 05 56 cf 24 01 	mov    0x124cf56(%rip),%rax        # 11250020 <output_pos>
    100030ca:	8b 55 fc             	mov    -0x4(%rbp),%edx
    100030cd:	89 10                	mov    %edx,(%rax)
    100030cf:	48 8b 05 4a cf 24 01 	mov    0x124cf4a(%rip),%rax        # 11250020 <output_pos>
    100030d6:	48 8d 50 04          	lea    0x4(%rax),%rdx
    100030da:	48 89 15 3f cf 24 01 	mov    %rdx,0x124cf3f(%rip)        # 11250020 <output_pos>
    100030e1:	c9                   	leaveq 
    100030e2:	c3                   	retq   

00000000100030e3 <write_completed>:
    100030e3:	55                   	push   %rbp
    100030e4:	48 89 e5             	mov    %rsp,%rbp
    100030e7:	48 83 ec 10          	sub    $0x10,%rsp
    100030eb:	89 7d fc             	mov    %edi,-0x4(%rbp)
    100030ee:	bf 20 6f 00 10       	mov    $0x10006f20,%edi
    100030f3:	b8 00 00 00 00       	mov    $0x0,%eax
    100030f8:	e8 9f d1 ff ff       	callq  1000029c <debug>
    100030fd:	48 8b 05 24 cf 24 01 	mov    0x124cf24(%rip),%rax        # 11250028 <output_data_mutex>
    10003104:	48 89 c7             	mov    %rax,%rdi
    10003107:	e8 93 19 00 00       	callq  10004a9f <sem_wait>
    1000310c:	48 8b 05 fd ce 24 01 	mov    0x124cefd(%rip),%rax        # 11250010 <output_data>
    10003113:	8b 55 fc             	mov    -0x4(%rbp),%edx
    10003116:	89 10                	mov    %edx,(%rax)
    10003118:	48 8b 05 09 cf 24 01 	mov    0x124cf09(%rip),%rax        # 11250028 <output_data_mutex>
    1000311f:	48 89 c7             	mov    %rax,%rdi
    10003122:	e8 5e 19 00 00       	callq  10004a85 <sem_post>
    10003127:	bf 41 6f 00 10       	mov    $0x10006f41,%edi
    1000312c:	b8 00 00 00 00       	mov    $0x0,%eax
    10003131:	e8 66 d1 ff ff       	callq  1000029c <debug>
    10003136:	90                   	nop
    10003137:	c9                   	leaveq 
    10003138:	c3                   	retq   

0000000010003139 <detect_kernel_bitness>:
    10003139:	55                   	push   %rbp
    1000313a:	48 89 e5             	mov    %rsp,%rbp
    1000313d:	b8 01 00 00 00       	mov    $0x1,%eax
    10003142:	5d                   	pop    %rbp
    10003143:	c3                   	retq   

0000000010003144 <_start>:
    10003144:	48 c7 c5 00 00 00 00 	mov    $0x0,%rbp
    1000314b:	48 83 ec 20          	sub    $0x20,%rsp
    1000314f:	e8 94 1c 00 00       	callq  10004de8 <umain>
    10003154:	eb fe                	jmp    10003154 <_start+0x10>

0000000010003156 <opendir>:
    10003156:	55                   	push   %rbp
    10003157:	48 89 e5             	mov    %rsp,%rbp
    1000315a:	48 83 ec 40          	sub    $0x40,%rsp
    1000315e:	48 89 7d c8          	mov    %rdi,-0x38(%rbp)
    10003162:	bf 20 01 00 00       	mov    $0x120,%edi
    10003167:	e8 7a 09 00 00       	callq  10003ae6 <malloc>
    1000316c:	48 89 45 f8          	mov    %rax,-0x8(%rbp)
    10003170:	48 83 7d f8 00       	cmpq   $0x0,-0x8(%rbp)
    10003175:	75 07                	jne    1000317e <opendir+0x28>
    10003177:	b8 00 00 00 00       	mov    $0x0,%eax
    1000317c:	eb 7d                	jmp    100031fb <opendir+0xa5>
    1000317e:	48 8b 45 c8          	mov    -0x38(%rbp),%rax
    10003182:	be 00 00 00 00       	mov    $0x0,%esi
    10003187:	48 89 c7             	mov    %rax,%rdi
    1000318a:	e8 8c 01 00 00       	callq  1000331b <open>
    1000318f:	89 c2                	mov    %eax,%edx
    10003191:	48 8b 45 f8          	mov    -0x8(%rbp),%rax
    10003195:	89 10                	mov    %edx,(%rax)
    10003197:	48 8b 45 f8          	mov    -0x8(%rbp),%rax
    1000319b:	8b 00                	mov    (%rax),%eax
    1000319d:	85 c0                	test   %eax,%eax
    1000319f:	78 45                	js     100031e6 <opendir+0x90>
    100031a1:	48 8d 45 d0          	lea    -0x30(%rbp),%rax
    100031a5:	48 89 45 f0          	mov    %rax,-0x10(%rbp)
    100031a9:	48 8b 45 f8          	mov    -0x8(%rbp),%rax
    100031ad:	8b 00                	mov    (%rax),%eax
    100031af:	48 8b 55 f0          	mov    -0x10(%rbp),%rdx
    100031b3:	48 89 d6             	mov    %rdx,%rsi
    100031b6:	89 c7                	mov    %eax,%edi
    100031b8:	e8 13 02 00 00       	callq  100033d0 <fstat>
    100031bd:	85 c0                	test   %eax,%eax
    100031bf:	75 28                	jne    100031e9 <opendir+0x93>
    100031c1:	48 8b 45 f0          	mov    -0x10(%rbp),%rax
    100031c5:	8b 40 04             	mov    0x4(%rax),%eax
    100031c8:	25 00 f0 00 00       	and    $0xf000,%eax
    100031cd:	3d 00 40 00 00       	cmp    $0x4000,%eax
    100031d2:	75 15                	jne    100031e9 <opendir+0x93>
    100031d4:	48 8b 45 f8          	mov    -0x8(%rbp),%rax
    100031d8:	48 c7 40 10 00 00 00 	movq   $0x0,0x10(%rax)
    100031df:	00 
    100031e0:	48 8b 45 f8          	mov    -0x8(%rbp),%rax
    100031e4:	eb 15                	jmp    100031fb <opendir+0xa5>
    100031e6:	90                   	nop
    100031e7:	eb 01                	jmp    100031ea <opendir+0x94>
    100031e9:	90                   	nop
    100031ea:	48 8b 45 f8          	mov    -0x8(%rbp),%rax
    100031ee:	48 89 c7             	mov    %rax,%rdi
    100031f1:	e8 52 09 00 00       	callq  10003b48 <free>
    100031f6:	b8 00 00 00 00       	mov    $0x0,%eax
    100031fb:	c9                   	leaveq 
    100031fc:	c3                   	retq   

00000000100031fd <readdir>:
    100031fd:	55                   	push   %rbp
    100031fe:	48 89 e5             	mov    %rsp,%rbp
    10003201:	48 83 ec 10          	sub    $0x10,%rsp
    10003205:	48 89 7d f8          	mov    %rdi,-0x8(%rbp)
    10003209:	48 8b 45 f8          	mov    -0x8(%rbp),%rax
    1000320d:	48 8d 50 08          	lea    0x8(%rax),%rdx
    10003211:	48 8b 45 f8          	mov    -0x8(%rbp),%rax
    10003215:	8b 00                	mov    (%rax),%eax
    10003217:	48 89 d6             	mov    %rdx,%rsi
    1000321a:	89 c7                	mov    %eax,%edi
    1000321c:	e8 0d 12 00 00       	callq  1000442e <sys_getdirentry>
    10003221:	85 c0                	test   %eax,%eax
    10003223:	75 0a                	jne    1000322f <readdir+0x32>
    10003225:	48 8b 45 f8          	mov    -0x8(%rbp),%rax
    10003229:	48 83 c0 08          	add    $0x8,%rax
    1000322d:	eb 05                	jmp    10003234 <readdir+0x37>
    1000322f:	b8 00 00 00 00       	mov    $0x0,%eax
    10003234:	c9                   	leaveq 
    10003235:	c3                   	retq   

0000000010003236 <closedir>:
    10003236:	55                   	push   %rbp
    10003237:	48 89 e5             	mov    %rsp,%rbp
    1000323a:	48 83 ec 10          	sub    $0x10,%rsp
    1000323e:	48 89 7d f8          	mov    %rdi,-0x8(%rbp)
    10003242:	48 8b 45 f8          	mov    -0x8(%rbp),%rax
    10003246:	8b 00                	mov    (%rax),%eax
    10003248:	89 c7                	mov    %eax,%edi
    1000324a:	e8 ee 00 00 00       	callq  1000333d <close>
    1000324f:	48 8b 45 f8          	mov    -0x8(%rbp),%rax
    10003253:	48 89 c7             	mov    %rax,%rdi
    10003256:	e8 ed 08 00 00       	callq  10003b48 <free>
    1000325b:	90                   	nop
    1000325c:	c9                   	leaveq 
    1000325d:	c3                   	retq   

000000001000325e <chdir>:
    1000325e:	55                   	push   %rbp
    1000325f:	48 89 e5             	mov    %rsp,%rbp
    10003262:	48 83 ec 10          	sub    $0x10,%rsp
    10003266:	48 89 7d f8          	mov    %rdi,-0x8(%rbp)
    1000326a:	48 8b 45 f8          	mov    -0x8(%rbp),%rax
    1000326e:	48 89 c7             	mov    %rax,%rdi
    10003271:	e8 c8 10 00 00       	callq  1000433e <sys_chdir>
    10003276:	c9                   	leaveq 
    10003277:	c3                   	retq   

0000000010003278 <getcwd>:
    10003278:	55                   	push   %rbp
    10003279:	48 89 e5             	mov    %rsp,%rbp
    1000327c:	48 83 ec 10          	sub    $0x10,%rsp
    10003280:	48 89 7d f8          	mov    %rdi,-0x8(%rbp)
    10003284:	48 89 75 f0          	mov    %rsi,-0x10(%rbp)
    10003288:	48 8b 55 f0          	mov    -0x10(%rbp),%rdx
    1000328c:	48 8b 45 f8          	mov    -0x8(%rbp),%rax
    10003290:	48 89 d6             	mov    %rdx,%rsi
    10003293:	48 89 c7             	mov    %rax,%rdi
    10003296:	e8 c7 10 00 00       	callq  10004362 <sys_getcwd>
    1000329b:	c9                   	leaveq 
    1000329c:	c3                   	retq   

000000001000329d <mkdir>:
    1000329d:	55                   	push   %rbp
    1000329e:	48 89 e5             	mov    %rsp,%rbp
    100032a1:	48 83 ec 10          	sub    $0x10,%rsp
    100032a5:	48 89 7d f8          	mov    %rdi,-0x8(%rbp)
    100032a9:	48 8b 45 f8          	mov    -0x8(%rbp),%rax
    100032ad:	48 89 c7             	mov    %rax,%rdi
    100032b0:	e8 d9 10 00 00       	callq  1000438e <sys_mkdir>
    100032b5:	c9                   	leaveq 
    100032b6:	c3                   	retq   

00000000100032b7 <link>:
    100032b7:	55                   	push   %rbp
    100032b8:	48 89 e5             	mov    %rsp,%rbp
    100032bb:	48 83 ec 10          	sub    $0x10,%rsp
    100032bf:	48 89 7d f8          	mov    %rdi,-0x8(%rbp)
    100032c3:	48 89 75 f0          	mov    %rsi,-0x10(%rbp)
    100032c7:	48 8b 55 f0          	mov    -0x10(%rbp),%rdx
    100032cb:	48 8b 45 f8          	mov    -0x8(%rbp),%rax
    100032cf:	48 89 d6             	mov    %rdx,%rsi
    100032d2:	48 89 c7             	mov    %rax,%rdi
    100032d5:	e8 d8 10 00 00       	callq  100043b2 <sys_link>
    100032da:	c9                   	leaveq 
    100032db:	c3                   	retq   

00000000100032dc <rename>:
    100032dc:	55                   	push   %rbp
    100032dd:	48 89 e5             	mov    %rsp,%rbp
    100032e0:	48 83 ec 10          	sub    $0x10,%rsp
    100032e4:	48 89 7d f8          	mov    %rdi,-0x8(%rbp)
    100032e8:	48 89 75 f0          	mov    %rsi,-0x10(%rbp)
    100032ec:	48 8b 55 f0          	mov    -0x10(%rbp),%rdx
    100032f0:	48 8b 45 f8          	mov    -0x8(%rbp),%rax
    100032f4:	48 89 d6             	mov    %rdx,%rsi
    100032f7:	48 89 c7             	mov    %rax,%rdi
    100032fa:	e8 df 10 00 00       	callq  100043de <sys_rename>
    100032ff:	c9                   	leaveq 
    10003300:	c3                   	retq   

0000000010003301 <unlink>:
    10003301:	55                   	push   %rbp
    10003302:	48 89 e5             	mov    %rsp,%rbp
    10003305:	48 83 ec 10          	sub    $0x10,%rsp
    10003309:	48 89 7d f8          	mov    %rdi,-0x8(%rbp)
    1000330d:	48 8b 45 f8          	mov    -0x8(%rbp),%rax
    10003311:	48 89 c7             	mov    %rax,%rdi
    10003314:	e8 f1 10 00 00       	callq  1000440a <sys_unlink>
    10003319:	c9                   	leaveq 
    1000331a:	c3                   	retq   

000000001000331b <open>:
    1000331b:	55                   	push   %rbp
    1000331c:	48 89 e5             	mov    %rsp,%rbp
    1000331f:	48 83 ec 10          	sub    $0x10,%rsp
    10003323:	48 89 7d f8          	mov    %rdi,-0x8(%rbp)
    10003327:	89 75 f4             	mov    %esi,-0xc(%rbp)
    1000332a:	8b 55 f4             	mov    -0xc(%rbp),%edx
    1000332d:	48 8b 45 f8          	mov    -0x8(%rbp),%rax
    10003331:	89 d6                	mov    %edx,%esi
    10003333:	48 89 c7             	mov    %rax,%rdi
    10003336:	e8 dd 0e 00 00       	callq  10004218 <sys_open>
    1000333b:	c9                   	leaveq 
    1000333c:	c3                   	retq   

000000001000333d <close>:
    1000333d:	55                   	push   %rbp
    1000333e:	48 89 e5             	mov    %rsp,%rbp
    10003341:	48 83 ec 10          	sub    $0x10,%rsp
    10003345:	89 7d fc             	mov    %edi,-0x4(%rbp)
    10003348:	8b 45 fc             	mov    -0x4(%rbp),%eax
    1000334b:	89 c7                	mov    %eax,%edi
    1000334d:	e8 f0 0e 00 00       	callq  10004242 <sys_close>
    10003352:	c9                   	leaveq 
    10003353:	c3                   	retq   

0000000010003354 <read>:
    10003354:	55                   	push   %rbp
    10003355:	48 89 e5             	mov    %rsp,%rbp
    10003358:	48 83 ec 20          	sub    $0x20,%rsp
    1000335c:	89 7d fc             	mov    %edi,-0x4(%rbp)
    1000335f:	48 89 75 f0          	mov    %rsi,-0x10(%rbp)
    10003363:	48 89 55 e8          	mov    %rdx,-0x18(%rbp)
    10003367:	48 8b 55 e8          	mov    -0x18(%rbp),%rdx
    1000336b:	48 8b 4d f0          	mov    -0x10(%rbp),%rcx
    1000336f:	8b 45 fc             	mov    -0x4(%rbp),%eax
    10003372:	48 89 ce             	mov    %rcx,%rsi
    10003375:	89 c7                	mov    %eax,%edi
    10003377:	e8 e7 0e 00 00       	callq  10004263 <sys_read>
    1000337c:	c9                   	leaveq 
    1000337d:	c3                   	retq   

000000001000337e <write>:
    1000337e:	55                   	push   %rbp
    1000337f:	48 89 e5             	mov    %rsp,%rbp
    10003382:	48 83 ec 20          	sub    $0x20,%rsp
    10003386:	89 7d fc             	mov    %edi,-0x4(%rbp)
    10003389:	48 89 75 f0          	mov    %rsi,-0x10(%rbp)
    1000338d:	48 89 55 e8          	mov    %rdx,-0x18(%rbp)
    10003391:	48 8b 55 e8          	mov    -0x18(%rbp),%rdx
    10003395:	48 8b 4d f0          	mov    -0x10(%rbp),%rcx
    10003399:	8b 45 fc             	mov    -0x4(%rbp),%eax
    1000339c:	48 89 ce             	mov    %rcx,%rsi
    1000339f:	89 c7                	mov    %eax,%edi
    100033a1:	e8 ee 0e 00 00       	callq  10004294 <sys_write>
    100033a6:	c9                   	leaveq 
    100033a7:	c3                   	retq   

00000000100033a8 <seek>:
    100033a8:	55                   	push   %rbp
    100033a9:	48 89 e5             	mov    %rsp,%rbp
    100033ac:	48 83 ec 10          	sub    $0x10,%rsp
    100033b0:	89 7d fc             	mov    %edi,-0x4(%rbp)
    100033b3:	48 89 75 f0          	mov    %rsi,-0x10(%rbp)
    100033b7:	89 55 f8             	mov    %edx,-0x8(%rbp)
    100033ba:	8b 55 f8             	mov    -0x8(%rbp),%edx
    100033bd:	48 8b 4d f0          	mov    -0x10(%rbp),%rcx
    100033c1:	8b 45 fc             	mov    -0x4(%rbp),%eax
    100033c4:	48 89 ce             	mov    %rcx,%rsi
    100033c7:	89 c7                	mov    %eax,%edi
    100033c9:	e8 f7 0e 00 00       	callq  100042c5 <sys_seek>
    100033ce:	c9                   	leaveq 
    100033cf:	c3                   	retq   

00000000100033d0 <fstat>:
    100033d0:	55                   	push   %rbp
    100033d1:	48 89 e5             	mov    %rsp,%rbp
    100033d4:	48 83 ec 10          	sub    $0x10,%rsp
    100033d8:	89 7d fc             	mov    %edi,-0x4(%rbp)
    100033db:	48 89 75 f0          	mov    %rsi,-0x10(%rbp)
    100033df:	48 8b 55 f0          	mov    -0x10(%rbp),%rdx
    100033e3:	8b 45 fc             	mov    -0x4(%rbp),%eax
    100033e6:	48 89 d6             	mov    %rdx,%rsi
    100033e9:	89 c7                	mov    %eax,%edi
    100033eb:	e8 04 0f 00 00       	callq  100042f4 <sys_fstat>
    100033f0:	c9                   	leaveq 
    100033f1:	c3                   	retq   

00000000100033f2 <fsync>:
    100033f2:	55                   	push   %rbp
    100033f3:	48 89 e5             	mov    %rsp,%rbp
    100033f6:	48 83 ec 10          	sub    $0x10,%rsp
    100033fa:	89 7d fc             	mov    %edi,-0x4(%rbp)
    100033fd:	8b 45 fc             	mov    -0x4(%rbp),%eax
    10003400:	89 c7                	mov    %eax,%edi
    10003402:	e8 16 0f 00 00       	callq  1000431d <sys_fsync>
    10003407:	c9                   	leaveq 
    10003408:	c3                   	retq   

0000000010003409 <dup>:
    10003409:	55                   	push   %rbp
    1000340a:	48 89 e5             	mov    %rsp,%rbp
    1000340d:	48 83 ec 10          	sub    $0x10,%rsp
    10003411:	89 7d fc             	mov    %edi,-0x4(%rbp)
    10003414:	8b 45 fc             	mov    -0x4(%rbp),%eax
    10003417:	be d9 6a ff ff       	mov    $0xffff6ad9,%esi
    1000341c:	89 c7                	mov    %eax,%edi
    1000341e:	e8 34 10 00 00       	callq  10004457 <sys_dup>
    10003423:	c9                   	leaveq 
    10003424:	c3                   	retq   

0000000010003425 <dup2>:
    10003425:	55                   	push   %rbp
    10003426:	48 89 e5             	mov    %rsp,%rbp
    10003429:	48 83 ec 10          	sub    $0x10,%rsp
    1000342d:	89 7d fc             	mov    %edi,-0x4(%rbp)
    10003430:	89 75 f8             	mov    %esi,-0x8(%rbp)
    10003433:	8b 55 f8             	mov    -0x8(%rbp),%edx
    10003436:	8b 45 fc             	mov    -0x4(%rbp),%eax
    10003439:	89 d6                	mov    %edx,%esi
    1000343b:	89 c7                	mov    %eax,%edi
    1000343d:	e8 15 10 00 00       	callq  10004457 <sys_dup>
    10003442:	c9                   	leaveq 
    10003443:	c3                   	retq   

0000000010003444 <pipe>:
    10003444:	55                   	push   %rbp
    10003445:	48 89 e5             	mov    %rsp,%rbp
    10003448:	48 83 ec 10          	sub    $0x10,%rsp
    1000344c:	48 89 7d f8          	mov    %rdi,-0x8(%rbp)
    10003450:	48 8b 45 f8          	mov    -0x8(%rbp),%rax
    10003454:	48 89 c7             	mov    %rax,%rdi
    10003457:	e8 22 10 00 00       	callq  1000447e <sys_pipe>
    1000345c:	c9                   	leaveq 
    1000345d:	c3                   	retq   

000000001000345e <mkfifo>:
    1000345e:	55                   	push   %rbp
    1000345f:	48 89 e5             	mov    %rsp,%rbp
    10003462:	48 83 ec 10          	sub    $0x10,%rsp
    10003466:	48 89 7d f8          	mov    %rdi,-0x8(%rbp)
    1000346a:	89 75 f4             	mov    %esi,-0xc(%rbp)
    1000346d:	8b 55 f4             	mov    -0xc(%rbp),%edx
    10003470:	48 8b 45 f8          	mov    -0x8(%rbp),%rax
    10003474:	89 d6                	mov    %edx,%esi
    10003476:	48 89 c7             	mov    %rax,%rdi
    10003479:	e8 24 10 00 00       	callq  100044a2 <sys_mkfifo>
    1000347e:	c9                   	leaveq 
    1000347f:	c3                   	retq   

0000000010003480 <transmode>:
    10003480:	55                   	push   %rbp
    10003481:	48 89 e5             	mov    %rsp,%rbp
    10003484:	48 89 7d e8          	mov    %rdi,-0x18(%rbp)
    10003488:	48 8b 45 e8          	mov    -0x18(%rbp),%rax
    1000348c:	8b 40 04             	mov    0x4(%rax),%eax
    1000348f:	89 45 fc             	mov    %eax,-0x4(%rbp)
    10003492:	8b 45 fc             	mov    -0x4(%rbp),%eax
    10003495:	25 00 f0 00 00       	and    $0xf000,%eax
    1000349a:	3d 00 80 00 00       	cmp    $0x8000,%eax
    1000349f:	75 07                	jne    100034a8 <transmode+0x28>
    100034a1:	b8 72 00 00 00       	mov    $0x72,%eax
    100034a6:	eb 5d                	jmp    10003505 <transmode+0x85>
    100034a8:	8b 45 fc             	mov    -0x4(%rbp),%eax
    100034ab:	25 00 f0 00 00       	and    $0xf000,%eax
    100034b0:	3d 00 40 00 00       	cmp    $0x4000,%eax
    100034b5:	75 07                	jne    100034be <transmode+0x3e>
    100034b7:	b8 64 00 00 00       	mov    $0x64,%eax
    100034bc:	eb 47                	jmp    10003505 <transmode+0x85>
    100034be:	8b 45 fc             	mov    -0x4(%rbp),%eax
    100034c1:	25 00 f0 00 00       	and    $0xf000,%eax
    100034c6:	3d 00 a0 00 00       	cmp    $0xa000,%eax
    100034cb:	75 07                	jne    100034d4 <transmode+0x54>
    100034cd:	b8 6c 00 00 00       	mov    $0x6c,%eax
    100034d2:	eb 31                	jmp    10003505 <transmode+0x85>
    100034d4:	8b 45 fc             	mov    -0x4(%rbp),%eax
    100034d7:	25 00 f0 00 00       	and    $0xf000,%eax
    100034dc:	3d 00 20 00 00       	cmp    $0x2000,%eax
    100034e1:	75 07                	jne    100034ea <transmode+0x6a>
    100034e3:	b8 63 00 00 00       	mov    $0x63,%eax
    100034e8:	eb 1b                	jmp    10003505 <transmode+0x85>
    100034ea:	8b 45 fc             	mov    -0x4(%rbp),%eax
    100034ed:	25 00 f0 00 00       	and    $0xf000,%eax
    100034f2:	3d 00 60 00 00       	cmp    $0x6000,%eax
    100034f7:	75 07                	jne    10003500 <transmode+0x80>
    100034f9:	b8 62 00 00 00       	mov    $0x62,%eax
    100034fe:	eb 05                	jmp    10003505 <transmode+0x85>
    10003500:	b8 2d 00 00 00       	mov    $0x2d,%eax
    10003505:	5d                   	pop    %rbp
    10003506:	c3                   	retq   

0000000010003507 <print_stat>:
    10003507:	55                   	push   %rbp
    10003508:	48 89 e5             	mov    %rsp,%rbp
    1000350b:	48 83 ec 20          	sub    $0x20,%rsp
    1000350f:	48 89 7d f8          	mov    %rdi,-0x8(%rbp)
    10003513:	89 75 f4             	mov    %esi,-0xc(%rbp)
    10003516:	48 89 55 e8          	mov    %rdx,-0x18(%rbp)
    1000351a:	48 8b 55 f8          	mov    -0x8(%rbp),%rdx
    1000351e:	8b 45 f4             	mov    -0xc(%rbp),%eax
    10003521:	89 c6                	mov    %eax,%esi
    10003523:	bf 4f 6f 00 10       	mov    $0x10006f4f,%edi
    10003528:	b8 00 00 00 00       	mov    $0x0,%eax
    1000352d:	e8 a6 06 00 00       	callq  10003bd8 <cprintf>
    10003532:	48 8b 45 e8          	mov    -0x18(%rbp),%rax
    10003536:	48 89 c7             	mov    %rax,%rdi
    10003539:	e8 42 ff ff ff       	callq  10003480 <transmode>
    1000353e:	0f be c0             	movsbl %al,%eax
    10003541:	89 c6                	mov    %eax,%esi
    10003543:	bf 5a 6f 00 10       	mov    $0x10006f5a,%edi
    10003548:	b8 00 00 00 00       	mov    $0x0,%eax
    1000354d:	e8 86 06 00 00       	callq  10003bd8 <cprintf>
    10003552:	48 8b 45 e8          	mov    -0x18(%rbp),%rax
    10003556:	48 8b 40 08          	mov    0x8(%rax),%rax
    1000355a:	48 89 c6             	mov    %rax,%rsi
    1000355d:	bf 6c 6f 00 10       	mov    $0x10006f6c,%edi
    10003562:	b8 00 00 00 00       	mov    $0x0,%eax
    10003567:	e8 6c 06 00 00       	callq  10003bd8 <cprintf>
    1000356c:	48 8b 45 e8          	mov    -0x18(%rbp),%rax
    10003570:	48 8b 40 10          	mov    0x10(%rax),%rax
    10003574:	48 89 c6             	mov    %rax,%rsi
    10003577:	bf 7f 6f 00 10       	mov    $0x10006f7f,%edi
    1000357c:	b8 00 00 00 00       	mov    $0x0,%eax
    10003581:	e8 52 06 00 00       	callq  10003bd8 <cprintf>
    10003586:	48 8b 45 e8          	mov    -0x18(%rbp),%rax
    1000358a:	48 8b 40 18          	mov    0x18(%rax),%rax
    1000358e:	48 89 c6             	mov    %rax,%rsi
    10003591:	bf 92 6f 00 10       	mov    $0x10006f92,%edi
    10003596:	b8 00 00 00 00       	mov    $0x0,%eax
    1000359b:	e8 38 06 00 00       	callq  10003bd8 <cprintf>
    100035a0:	90                   	nop
    100035a1:	c9                   	leaveq 
    100035a2:	c3                   	retq   

00000000100035a3 <ioctl>:
    100035a3:	55                   	push   %rbp
    100035a4:	48 89 e5             	mov    %rsp,%rbp
    100035a7:	48 83 ec 10          	sub    $0x10,%rsp
    100035ab:	89 7d fc             	mov    %edi,-0x4(%rbp)
    100035ae:	89 75 f8             	mov    %esi,-0x8(%rbp)
    100035b1:	48 89 55 f0          	mov    %rdx,-0x10(%rbp)
    100035b5:	48 8b 55 f0          	mov    -0x10(%rbp),%rdx
    100035b9:	8b 4d f8             	mov    -0x8(%rbp),%ecx
    100035bc:	8b 45 fc             	mov    -0x4(%rbp),%eax
    100035bf:	89 ce                	mov    %ecx,%esi
    100035c1:	89 c7                	mov    %eax,%edi
    100035c3:	e8 04 0f 00 00       	callq  100044cc <sys_ioctl>
    100035c8:	c9                   	leaveq 
    100035c9:	c3                   	retq   

00000000100035ca <try_lock>:
    100035ca:	55                   	push   %rbp
    100035cb:	48 89 e5             	mov    %rsp,%rbp
    100035ce:	48 89 7d d8          	mov    %rdi,-0x28(%rbp)
    100035d2:	c7 45 fc 00 00 00 00 	movl   $0x0,-0x4(%rbp)
    100035d9:	48 8b 45 d8          	mov    -0x28(%rbp),%rax
    100035dd:	48 89 45 f0          	mov    %rax,-0x10(%rbp)
    100035e1:	48 8b 55 f0          	mov    -0x10(%rbp),%rdx
    100035e5:	8b 45 fc             	mov    -0x4(%rbp),%eax
    100035e8:	0f ab 02             	bts    %eax,(%rdx)
    100035eb:	19 c0                	sbb    %eax,%eax
    100035ed:	89 45 ec             	mov    %eax,-0x14(%rbp)
    100035f0:	83 7d ec 00          	cmpl   $0x0,-0x14(%rbp)
    100035f4:	0f 95 c0             	setne  %al
    100035f7:	0f b6 c0             	movzbl %al,%eax
    100035fa:	90                   	nop
    100035fb:	5d                   	pop    %rbp
    100035fc:	c3                   	retq   

00000000100035fd <lock>:
    100035fd:	55                   	push   %rbp
    100035fe:	48 89 e5             	mov    %rsp,%rbp
    10003601:	48 83 ec 20          	sub    $0x20,%rsp
    10003605:	48 89 7d e8          	mov    %rdi,-0x18(%rbp)
    10003609:	48 8b 45 e8          	mov    -0x18(%rbp),%rax
    1000360d:	48 89 c7             	mov    %rax,%rdi
    10003610:	e8 b5 ff ff ff       	callq  100035ca <try_lock>
    10003615:	85 c0                	test   %eax,%eax
    10003617:	74 37                	je     10003650 <lock+0x53>
    10003619:	c7 45 fc 00 00 00 00 	movl   $0x0,-0x4(%rbp)
    10003620:	e8 72 13 00 00       	callq  10004997 <yield>
    10003625:	83 45 fc 01          	addl   $0x1,-0x4(%rbp)
    10003629:	83 7d fc 64          	cmpl   $0x64,-0x4(%rbp)
    1000362d:	75 11                	jne    10003640 <lock+0x43>
    1000362f:	c7 45 fc 00 00 00 00 	movl   $0x0,-0x4(%rbp)
    10003636:	bf 0a 00 00 00       	mov    $0xa,%edi
    1000363b:	e8 63 13 00 00       	callq  100049a3 <sleep>
    10003640:	48 8b 45 e8          	mov    -0x18(%rbp),%rax
    10003644:	48 89 c7             	mov    %rax,%rdi
    10003647:	e8 7e ff ff ff       	callq  100035ca <try_lock>
    1000364c:	85 c0                	test   %eax,%eax
    1000364e:	75 d0                	jne    10003620 <lock+0x23>
    10003650:	90                   	nop
    10003651:	c9                   	leaveq 
    10003652:	c3                   	retq   

0000000010003653 <unlock>:
    10003653:	55                   	push   %rbp
    10003654:	48 89 e5             	mov    %rsp,%rbp
    10003657:	48 89 7d d8          	mov    %rdi,-0x28(%rbp)
    1000365b:	c7 45 fc 00 00 00 00 	movl   $0x0,-0x4(%rbp)
    10003662:	48 8b 45 d8          	mov    -0x28(%rbp),%rax
    10003666:	48 89 45 f0          	mov    %rax,-0x10(%rbp)
    1000366a:	48 8b 55 f0          	mov    -0x10(%rbp),%rdx
    1000366e:	8b 45 fc             	mov    -0x4(%rbp),%eax
    10003671:	0f b3 02             	btr    %eax,(%rdx)
    10003674:	19 c0                	sbb    %eax,%eax
    10003676:	89 45 ec             	mov    %eax,-0x14(%rbp)
    10003679:	83 7d ec 00          	cmpl   $0x0,-0x14(%rbp)
    1000367d:	90                   	nop
    1000367e:	5d                   	pop    %rbp
    1000367f:	c3                   	retq   

0000000010003680 <lock_malloc>:
    10003680:	55                   	push   %rbp
    10003681:	48 89 e5             	mov    %rsp,%rbp
    10003684:	e8 6a 12 00 00       	callq  100048f3 <lock_fork>
    10003689:	bf c8 00 01 10       	mov    $0x100100c8,%edi
    1000368e:	e8 6a ff ff ff       	callq  100035fd <lock>
    10003693:	90                   	nop
    10003694:	5d                   	pop    %rbp
    10003695:	c3                   	retq   

0000000010003696 <unlock_malloc>:
    10003696:	55                   	push   %rbp
    10003697:	48 89 e5             	mov    %rsp,%rbp
    1000369a:	bf c8 00 01 10       	mov    $0x100100c8,%edi
    1000369f:	e8 af ff ff ff       	callq  10003653 <unlock>
    100036a4:	e8 5b 12 00 00       	callq  10004904 <unlock_fork>
    100036a9:	90                   	nop
    100036aa:	5d                   	pop    %rbp
    100036ab:	c3                   	retq   

00000000100036ac <morecore_brk_locked>:
    100036ac:	55                   	push   %rbp
    100036ad:	48 89 e5             	mov    %rsp,%rbp
    100036b0:	48 83 ec 20          	sub    $0x20,%rsp
    100036b4:	48 89 7d e8          	mov    %rdi,-0x18(%rbp)
    100036b8:	48 8b 05 11 ca 00 00 	mov    0xca11(%rip),%rax        # 100100d0 <brk.1810>
    100036bf:	48 85 c0             	test   %rax,%rax
    100036c2:	75 24                	jne    100036e8 <morecore_brk_locked+0x3c>
    100036c4:	bf d0 00 01 10       	mov    $0x100100d0,%edi
    100036c9:	e8 79 08 00 00       	callq  10003f47 <sys_brk>
    100036ce:	85 c0                	test   %eax,%eax
    100036d0:	75 0c                	jne    100036de <morecore_brk_locked+0x32>
    100036d2:	48 8b 05 f7 c9 00 00 	mov    0xc9f7(%rip),%rax        # 100100d0 <brk.1810>
    100036d9:	48 85 c0             	test   %rax,%rax
    100036dc:	75 0a                	jne    100036e8 <morecore_brk_locked+0x3c>
    100036de:	b8 00 00 00 00       	mov    $0x0,%eax
    100036e3:	e9 96 00 00 00       	jmpq   1000377e <morecore_brk_locked+0xd2>
    100036e8:	48 8b 45 e8          	mov    -0x18(%rbp),%rax
    100036ec:	48 c1 e0 06          	shl    $0x6,%rax
    100036f0:	48 89 c2             	mov    %rax,%rdx
    100036f3:	48 8b 05 d6 c9 00 00 	mov    0xc9d6(%rip),%rax        # 100100d0 <brk.1810>
    100036fa:	48 01 d0             	add    %rdx,%rax
    100036fd:	48 89 45 f0          	mov    %rax,-0x10(%rbp)
    10003701:	48 8d 45 f0          	lea    -0x10(%rbp),%rax
    10003705:	48 89 c7             	mov    %rax,%rdi
    10003708:	e8 3a 08 00 00       	callq  10003f47 <sys_brk>
    1000370d:	85 c0                	test   %eax,%eax
    1000370f:	75 10                	jne    10003721 <morecore_brk_locked+0x75>
    10003711:	48 8b 55 f0          	mov    -0x10(%rbp),%rdx
    10003715:	48 8b 05 b4 c9 00 00 	mov    0xc9b4(%rip),%rax        # 100100d0 <brk.1810>
    1000371c:	48 39 c2             	cmp    %rax,%rdx
    1000371f:	77 07                	ja     10003728 <morecore_brk_locked+0x7c>
    10003721:	b8 00 00 00 00       	mov    $0x0,%eax
    10003726:	eb 56                	jmp    1000377e <morecore_brk_locked+0xd2>
    10003728:	48 8b 05 a1 c9 00 00 	mov    0xc9a1(%rip),%rax        # 100100d0 <brk.1810>
    1000372f:	48 89 45 f8          	mov    %rax,-0x8(%rbp)
    10003733:	48 8b 55 f0          	mov    -0x10(%rbp),%rdx
    10003737:	48 8b 05 92 c9 00 00 	mov    0xc992(%rip),%rax        # 100100d0 <brk.1810>
    1000373e:	48 29 c2             	sub    %rax,%rdx
    10003741:	48 89 d0             	mov    %rdx,%rax
    10003744:	48 c1 e8 06          	shr    $0x6,%rax
    10003748:	48 89 c2             	mov    %rax,%rdx
    1000374b:	48 8b 45 f8          	mov    -0x8(%rbp),%rax
    1000374f:	48 89 50 08          	mov    %rdx,0x8(%rax)
    10003753:	48 8b 45 f8          	mov    -0x8(%rbp),%rax
    10003757:	c7 40 10 00 00 00 00 	movl   $0x0,0x10(%rax)
    1000375e:	48 8b 45 f8          	mov    -0x8(%rbp),%rax
    10003762:	48 83 c0 40          	add    $0x40,%rax
    10003766:	48 89 c7             	mov    %rax,%rdi
    10003769:	e8 29 02 00 00       	callq  10003997 <free_locked>
    1000376e:	48 8b 45 f0          	mov    -0x10(%rbp),%rax
    10003772:	48 89 05 57 c9 00 00 	mov    %rax,0xc957(%rip)        # 100100d0 <brk.1810>
    10003779:	b8 01 00 00 00       	mov    $0x1,%eax
    1000377e:	c9                   	leaveq 
    1000377f:	c3                   	retq   

0000000010003780 <morecore_shmem_locked>:
    10003780:	55                   	push   %rbp
    10003781:	48 89 e5             	mov    %rsp,%rbp
    10003784:	48 83 ec 30          	sub    $0x30,%rsp
    10003788:	48 89 7d d8          	mov    %rdi,-0x28(%rbp)
    1000378c:	48 8b 45 d8          	mov    -0x28(%rbp),%rax
    10003790:	48 c1 e0 06          	shl    $0x6,%rax
    10003794:	48 05 ff 0f 00 00    	add    $0xfff,%rax
    1000379a:	48 25 00 f0 ff ff    	and    $0xfffffffffffff000,%rax
    100037a0:	48 89 45 f8          	mov    %rax,-0x8(%rbp)
    100037a4:	48 c7 45 e8 00 00 00 	movq   $0x0,-0x18(%rbp)
    100037ab:	00 
    100037ac:	48 8b 4d f8          	mov    -0x8(%rbp),%rcx
    100037b0:	48 8d 45 e8          	lea    -0x18(%rbp),%rax
    100037b4:	ba 00 01 00 00       	mov    $0x100,%edx
    100037b9:	48 89 ce             	mov    %rcx,%rsi
    100037bc:	48 89 c7             	mov    %rax,%rdi
    100037bf:	e8 05 08 00 00       	callq  10003fc9 <sys_shmem>
    100037c4:	85 c0                	test   %eax,%eax
    100037c6:	75 09                	jne    100037d1 <morecore_shmem_locked+0x51>
    100037c8:	48 8b 45 e8          	mov    -0x18(%rbp),%rax
    100037cc:	48 85 c0             	test   %rax,%rax
    100037cf:	75 07                	jne    100037d8 <morecore_shmem_locked+0x58>
    100037d1:	b8 00 00 00 00       	mov    $0x0,%eax
    100037d6:	eb 3b                	jmp    10003813 <morecore_shmem_locked+0x93>
    100037d8:	48 8b 45 e8          	mov    -0x18(%rbp),%rax
    100037dc:	48 89 45 f0          	mov    %rax,-0x10(%rbp)
    100037e0:	48 8b 45 f8          	mov    -0x8(%rbp),%rax
    100037e4:	48 c1 e8 06          	shr    $0x6,%rax
    100037e8:	48 89 c2             	mov    %rax,%rdx
    100037eb:	48 8b 45 f0          	mov    -0x10(%rbp),%rax
    100037ef:	48 89 50 08          	mov    %rdx,0x8(%rax)
    100037f3:	48 8b 45 f0          	mov    -0x10(%rbp),%rax
    100037f7:	c7 40 10 01 00 00 00 	movl   $0x1,0x10(%rax)
    100037fe:	48 8b 45 f0          	mov    -0x10(%rbp),%rax
    10003802:	48 83 c0 40          	add    $0x40,%rax
    10003806:	48 89 c7             	mov    %rax,%rdi
    10003809:	e8 89 01 00 00       	callq  10003997 <free_locked>
    1000380e:	b8 01 00 00 00       	mov    $0x1,%eax
    10003813:	c9                   	leaveq 
    10003814:	c3                   	retq   

0000000010003815 <malloc_locked>:
    10003815:	55                   	push   %rbp
    10003816:	48 89 e5             	mov    %rsp,%rbp
    10003819:	48 83 ec 40          	sub    $0x40,%rsp
    1000381d:	48 89 7d c8          	mov    %rdi,-0x38(%rbp)
    10003821:	89 75 c4             	mov    %esi,-0x3c(%rbp)
    10003824:	83 7d c4 00          	cmpl   $0x0,-0x3c(%rbp)
    10003828:	74 07                	je     10003831 <malloc_locked+0x1c>
    1000382a:	c7 45 c4 01 00 00 00 	movl   $0x1,-0x3c(%rbp)
    10003831:	48 8b 45 c8          	mov    -0x38(%rbp),%rax
    10003835:	48 83 c0 3f          	add    $0x3f,%rax
    10003839:	48 c1 e8 06          	shr    $0x6,%rax
    1000383d:	48 83 c0 01          	add    $0x1,%rax
    10003841:	48 89 45 e8          	mov    %rax,-0x18(%rbp)
    10003845:	48 8b 05 74 c8 00 00 	mov    0xc874(%rip),%rax        # 100100c0 <freep>
    1000384c:	48 89 45 f0          	mov    %rax,-0x10(%rbp)
    10003850:	48 83 7d f0 00       	cmpq   $0x0,-0x10(%rbp)
    10003855:	75 2c                	jne    10003883 <malloc_locked+0x6e>
    10003857:	48 c7 45 f0 80 00 01 	movq   $0x10010080,-0x10(%rbp)
    1000385e:	10 
    1000385f:	48 8b 45 f0          	mov    -0x10(%rbp),%rax
    10003863:	48 89 05 56 c8 00 00 	mov    %rax,0xc856(%rip)        # 100100c0 <freep>
    1000386a:	48 8b 05 4f c8 00 00 	mov    0xc84f(%rip),%rax        # 100100c0 <freep>
    10003871:	48 89 05 08 c8 00 00 	mov    %rax,0xc808(%rip)        # 10010080 <base>
    10003878:	48 c7 05 05 c8 00 00 	movq   $0x0,0xc805(%rip)        # 10010088 <base+0x8>
    1000387f:	00 00 00 00 
    10003883:	48 8b 45 f0          	mov    -0x10(%rbp),%rax
    10003887:	48 8b 00             	mov    (%rax),%rax
    1000388a:	48 89 45 f8          	mov    %rax,-0x8(%rbp)
    1000388e:	48 8b 45 f8          	mov    -0x8(%rbp),%rax
    10003892:	8b 40 10             	mov    0x10(%rax),%eax
    10003895:	39 45 c4             	cmp    %eax,-0x3c(%rbp)
    10003898:	0f 85 a4 00 00 00    	jne    10003942 <malloc_locked+0x12d>
    1000389e:	48 8b 45 f8          	mov    -0x8(%rbp),%rax
    100038a2:	48 8b 40 08          	mov    0x8(%rax),%rax
    100038a6:	48 39 45 e8          	cmp    %rax,-0x18(%rbp)
    100038aa:	0f 87 92 00 00 00    	ja     10003942 <malloc_locked+0x12d>
    100038b0:	48 8b 45 f8          	mov    -0x8(%rbp),%rax
    100038b4:	48 8b 40 08          	mov    0x8(%rax),%rax
    100038b8:	48 39 45 e8          	cmp    %rax,-0x18(%rbp)
    100038bc:	75 10                	jne    100038ce <malloc_locked+0xb9>
    100038be:	48 8b 45 f8          	mov    -0x8(%rbp),%rax
    100038c2:	48 8b 10             	mov    (%rax),%rdx
    100038c5:	48 8b 45 f0          	mov    -0x10(%rbp),%rax
    100038c9:	48 89 10             	mov    %rdx,(%rax)
    100038cc:	eb 5f                	jmp    1000392d <malloc_locked+0x118>
    100038ce:	48 8b 45 e8          	mov    -0x18(%rbp),%rax
    100038d2:	48 c1 e0 06          	shl    $0x6,%rax
    100038d6:	48 89 c2             	mov    %rax,%rdx
    100038d9:	48 8b 45 f8          	mov    -0x8(%rbp),%rax
    100038dd:	48 01 c2             	add    %rax,%rdx
    100038e0:	48 8b 45 f0          	mov    -0x10(%rbp),%rax
    100038e4:	48 89 10             	mov    %rdx,(%rax)
    100038e7:	48 8b 45 f0          	mov    -0x10(%rbp),%rax
    100038eb:	48 8b 00             	mov    (%rax),%rax
    100038ee:	48 89 45 e0          	mov    %rax,-0x20(%rbp)
    100038f2:	48 8b 45 f8          	mov    -0x8(%rbp),%rax
    100038f6:	48 8b 10             	mov    (%rax),%rdx
    100038f9:	48 8b 45 e0          	mov    -0x20(%rbp),%rax
    100038fd:	48 89 10             	mov    %rdx,(%rax)
    10003900:	48 8b 45 f8          	mov    -0x8(%rbp),%rax
    10003904:	48 8b 40 08          	mov    0x8(%rax),%rax
    10003908:	48 2b 45 e8          	sub    -0x18(%rbp),%rax
    1000390c:	48 89 c2             	mov    %rax,%rdx
    1000390f:	48 8b 45 e0          	mov    -0x20(%rbp),%rax
    10003913:	48 89 50 08          	mov    %rdx,0x8(%rax)
    10003917:	48 8b 45 e0          	mov    -0x20(%rbp),%rax
    1000391b:	8b 55 c4             	mov    -0x3c(%rbp),%edx
    1000391e:	89 50 10             	mov    %edx,0x10(%rax)
    10003921:	48 8b 45 f8          	mov    -0x8(%rbp),%rax
    10003925:	48 8b 55 e8          	mov    -0x18(%rbp),%rdx
    10003929:	48 89 50 08          	mov    %rdx,0x8(%rax)
    1000392d:	48 8b 45 f0          	mov    -0x10(%rbp),%rax
    10003931:	48 89 05 88 c7 00 00 	mov    %rax,0xc788(%rip)        # 100100c0 <freep>
    10003938:	48 8b 45 f8          	mov    -0x8(%rbp),%rax
    1000393c:	48 83 c0 40          	add    $0x40,%rax
    10003940:	eb 53                	jmp    10003995 <malloc_locked+0x180>
    10003942:	48 8b 05 77 c7 00 00 	mov    0xc777(%rip),%rax        # 100100c0 <freep>
    10003949:	48 39 45 f8          	cmp    %rax,-0x8(%rbp)
    1000394d:	75 2e                	jne    1000397d <malloc_locked+0x168>
    1000394f:	83 7d c4 00          	cmpl   $0x0,-0x3c(%rbp)
    10003953:	75 07                	jne    1000395c <malloc_locked+0x147>
    10003955:	b8 ac 36 00 10       	mov    $0x100036ac,%eax
    1000395a:	eb 05                	jmp    10003961 <malloc_locked+0x14c>
    1000395c:	b8 80 37 00 10       	mov    $0x10003780,%eax
    10003961:	48 89 45 d8          	mov    %rax,-0x28(%rbp)
    10003965:	48 8b 55 e8          	mov    -0x18(%rbp),%rdx
    10003969:	48 8b 45 d8          	mov    -0x28(%rbp),%rax
    1000396d:	48 89 d7             	mov    %rdx,%rdi
    10003970:	ff d0                	callq  *%rax
    10003972:	85 c0                	test   %eax,%eax
    10003974:	75 07                	jne    1000397d <malloc_locked+0x168>
    10003976:	b8 00 00 00 00       	mov    $0x0,%eax
    1000397b:	eb 18                	jmp    10003995 <malloc_locked+0x180>
    1000397d:	48 8b 45 f8          	mov    -0x8(%rbp),%rax
    10003981:	48 89 45 f0          	mov    %rax,-0x10(%rbp)
    10003985:	48 8b 45 f8          	mov    -0x8(%rbp),%rax
    10003989:	48 8b 00             	mov    (%rax),%rax
    1000398c:	48 89 45 f8          	mov    %rax,-0x8(%rbp)
    10003990:	e9 f9 fe ff ff       	jmpq   1000388e <malloc_locked+0x79>
    10003995:	c9                   	leaveq 
    10003996:	c3                   	retq   

0000000010003997 <free_locked>:
    10003997:	55                   	push   %rbp
    10003998:	48 89 e5             	mov    %rsp,%rbp
    1000399b:	48 89 7d e8          	mov    %rdi,-0x18(%rbp)
    1000399f:	48 8b 45 e8          	mov    -0x18(%rbp),%rax
    100039a3:	48 83 e8 40          	sub    $0x40,%rax
    100039a7:	48 89 45 f0          	mov    %rax,-0x10(%rbp)
    100039ab:	48 8b 05 0e c7 00 00 	mov    0xc70e(%rip),%rax        # 100100c0 <freep>
    100039b2:	48 89 45 f8          	mov    %rax,-0x8(%rbp)
    100039b6:	eb 2f                	jmp    100039e7 <free_locked+0x50>
    100039b8:	48 8b 45 f8          	mov    -0x8(%rbp),%rax
    100039bc:	48 8b 00             	mov    (%rax),%rax
    100039bf:	48 39 45 f8          	cmp    %rax,-0x8(%rbp)
    100039c3:	72 17                	jb     100039dc <free_locked+0x45>
    100039c5:	48 8b 45 f0          	mov    -0x10(%rbp),%rax
    100039c9:	48 3b 45 f8          	cmp    -0x8(%rbp),%rax
    100039cd:	77 2f                	ja     100039fe <free_locked+0x67>
    100039cf:	48 8b 45 f8          	mov    -0x8(%rbp),%rax
    100039d3:	48 8b 00             	mov    (%rax),%rax
    100039d6:	48 39 45 f0          	cmp    %rax,-0x10(%rbp)
    100039da:	72 22                	jb     100039fe <free_locked+0x67>
    100039dc:	48 8b 45 f8          	mov    -0x8(%rbp),%rax
    100039e0:	48 8b 00             	mov    (%rax),%rax
    100039e3:	48 89 45 f8          	mov    %rax,-0x8(%rbp)
    100039e7:	48 8b 45 f0          	mov    -0x10(%rbp),%rax
    100039eb:	48 3b 45 f8          	cmp    -0x8(%rbp),%rax
    100039ef:	76 c7                	jbe    100039b8 <free_locked+0x21>
    100039f1:	48 8b 45 f8          	mov    -0x8(%rbp),%rax
    100039f5:	48 8b 00             	mov    (%rax),%rax
    100039f8:	48 39 45 f0          	cmp    %rax,-0x10(%rbp)
    100039fc:	73 ba                	jae    100039b8 <free_locked+0x21>
    100039fe:	48 8b 45 f0          	mov    -0x10(%rbp),%rax
    10003a02:	8b 50 10             	mov    0x10(%rax),%edx
    10003a05:	48 8b 45 f8          	mov    -0x8(%rbp),%rax
    10003a09:	48 8b 00             	mov    (%rax),%rax
    10003a0c:	8b 40 10             	mov    0x10(%rax),%eax
    10003a0f:	39 c2                	cmp    %eax,%edx
    10003a11:	75 53                	jne    10003a66 <free_locked+0xcf>
    10003a13:	48 8b 45 f0          	mov    -0x10(%rbp),%rax
    10003a17:	48 8b 40 08          	mov    0x8(%rax),%rax
    10003a1b:	48 c1 e0 06          	shl    $0x6,%rax
    10003a1f:	48 89 c2             	mov    %rax,%rdx
    10003a22:	48 8b 45 f0          	mov    -0x10(%rbp),%rax
    10003a26:	48 01 c2             	add    %rax,%rdx
    10003a29:	48 8b 45 f8          	mov    -0x8(%rbp),%rax
    10003a2d:	48 8b 00             	mov    (%rax),%rax
    10003a30:	48 39 c2             	cmp    %rax,%rdx
    10003a33:	75 31                	jne    10003a66 <free_locked+0xcf>
    10003a35:	48 8b 45 f0          	mov    -0x10(%rbp),%rax
    10003a39:	48 8b 50 08          	mov    0x8(%rax),%rdx
    10003a3d:	48 8b 45 f8          	mov    -0x8(%rbp),%rax
    10003a41:	48 8b 00             	mov    (%rax),%rax
    10003a44:	48 8b 40 08          	mov    0x8(%rax),%rax
    10003a48:	48 01 c2             	add    %rax,%rdx
    10003a4b:	48 8b 45 f0          	mov    -0x10(%rbp),%rax
    10003a4f:	48 89 50 08          	mov    %rdx,0x8(%rax)
    10003a53:	48 8b 45 f8          	mov    -0x8(%rbp),%rax
    10003a57:	48 8b 00             	mov    (%rax),%rax
    10003a5a:	48 8b 10             	mov    (%rax),%rdx
    10003a5d:	48 8b 45 f0          	mov    -0x10(%rbp),%rax
    10003a61:	48 89 10             	mov    %rdx,(%rax)
    10003a64:	eb 0e                	jmp    10003a74 <free_locked+0xdd>
    10003a66:	48 8b 45 f8          	mov    -0x8(%rbp),%rax
    10003a6a:	48 8b 10             	mov    (%rax),%rdx
    10003a6d:	48 8b 45 f0          	mov    -0x10(%rbp),%rax
    10003a71:	48 89 10             	mov    %rdx,(%rax)
    10003a74:	48 8b 45 f8          	mov    -0x8(%rbp),%rax
    10003a78:	8b 50 10             	mov    0x10(%rax),%edx
    10003a7b:	48 8b 45 f0          	mov    -0x10(%rbp),%rax
    10003a7f:	8b 40 10             	mov    0x10(%rax),%eax
    10003a82:	39 c2                	cmp    %eax,%edx
    10003a84:	75 47                	jne    10003acd <free_locked+0x136>
    10003a86:	48 8b 45 f8          	mov    -0x8(%rbp),%rax
    10003a8a:	48 8b 40 08          	mov    0x8(%rax),%rax
    10003a8e:	48 c1 e0 06          	shl    $0x6,%rax
    10003a92:	48 89 c2             	mov    %rax,%rdx
    10003a95:	48 8b 45 f8          	mov    -0x8(%rbp),%rax
    10003a99:	48 01 d0             	add    %rdx,%rax
    10003a9c:	48 39 45 f0          	cmp    %rax,-0x10(%rbp)
    10003aa0:	75 2b                	jne    10003acd <free_locked+0x136>
    10003aa2:	48 8b 45 f8          	mov    -0x8(%rbp),%rax
    10003aa6:	48 8b 50 08          	mov    0x8(%rax),%rdx
    10003aaa:	48 8b 45 f0          	mov    -0x10(%rbp),%rax
    10003aae:	48 8b 40 08          	mov    0x8(%rax),%rax
    10003ab2:	48 01 c2             	add    %rax,%rdx
    10003ab5:	48 8b 45 f8          	mov    -0x8(%rbp),%rax
    10003ab9:	48 89 50 08          	mov    %rdx,0x8(%rax)
    10003abd:	48 8b 45 f0          	mov    -0x10(%rbp),%rax
    10003ac1:	48 8b 10             	mov    (%rax),%rdx
    10003ac4:	48 8b 45 f8          	mov    -0x8(%rbp),%rax
    10003ac8:	48 89 10             	mov    %rdx,(%rax)
    10003acb:	eb 0b                	jmp    10003ad8 <free_locked+0x141>
    10003acd:	48 8b 45 f8          	mov    -0x8(%rbp),%rax
    10003ad1:	48 8b 55 f0          	mov    -0x10(%rbp),%rdx
    10003ad5:	48 89 10             	mov    %rdx,(%rax)
    10003ad8:	48 8b 45 f8          	mov    -0x8(%rbp),%rax
    10003adc:	48 89 05 dd c5 00 00 	mov    %rax,0xc5dd(%rip)        # 100100c0 <freep>
    10003ae3:	90                   	nop
    10003ae4:	5d                   	pop    %rbp
    10003ae5:	c3                   	retq   

0000000010003ae6 <malloc>:
    10003ae6:	55                   	push   %rbp
    10003ae7:	48 89 e5             	mov    %rsp,%rbp
    10003aea:	48 83 ec 20          	sub    $0x20,%rsp
    10003aee:	48 89 7d e8          	mov    %rdi,-0x18(%rbp)
    10003af2:	e8 89 fb ff ff       	callq  10003680 <lock_malloc>
    10003af7:	48 8b 45 e8          	mov    -0x18(%rbp),%rax
    10003afb:	be 00 00 00 00       	mov    $0x0,%esi
    10003b00:	48 89 c7             	mov    %rax,%rdi
    10003b03:	e8 0d fd ff ff       	callq  10003815 <malloc_locked>
    10003b08:	48 89 45 f8          	mov    %rax,-0x8(%rbp)
    10003b0c:	e8 85 fb ff ff       	callq  10003696 <unlock_malloc>
    10003b11:	48 8b 45 f8          	mov    -0x8(%rbp),%rax
    10003b15:	c9                   	leaveq 
    10003b16:	c3                   	retq   

0000000010003b17 <shmem_malloc>:
    10003b17:	55                   	push   %rbp
    10003b18:	48 89 e5             	mov    %rsp,%rbp
    10003b1b:	48 83 ec 20          	sub    $0x20,%rsp
    10003b1f:	48 89 7d e8          	mov    %rdi,-0x18(%rbp)
    10003b23:	e8 58 fb ff ff       	callq  10003680 <lock_malloc>
    10003b28:	48 8b 45 e8          	mov    -0x18(%rbp),%rax
    10003b2c:	be 01 00 00 00       	mov    $0x1,%esi
    10003b31:	48 89 c7             	mov    %rax,%rdi
    10003b34:	e8 dc fc ff ff       	callq  10003815 <malloc_locked>
    10003b39:	48 89 45 f8          	mov    %rax,-0x8(%rbp)
    10003b3d:	e8 54 fb ff ff       	callq  10003696 <unlock_malloc>
    10003b42:	48 8b 45 f8          	mov    -0x8(%rbp),%rax
    10003b46:	c9                   	leaveq 
    10003b47:	c3                   	retq   

0000000010003b48 <free>:
    10003b48:	55                   	push   %rbp
    10003b49:	48 89 e5             	mov    %rsp,%rbp
    10003b4c:	48 83 ec 10          	sub    $0x10,%rsp
    10003b50:	48 89 7d f8          	mov    %rdi,-0x8(%rbp)
    10003b54:	e8 27 fb ff ff       	callq  10003680 <lock_malloc>
    10003b59:	48 8b 45 f8          	mov    -0x8(%rbp),%rax
    10003b5d:	48 89 c7             	mov    %rax,%rdi
    10003b60:	e8 32 fe ff ff       	callq  10003997 <free_locked>
    10003b65:	e8 2c fb ff ff       	callq  10003696 <unlock_malloc>
    10003b6a:	90                   	nop
    10003b6b:	c9                   	leaveq 
    10003b6c:	c3                   	retq   

0000000010003b6d <cputch>:
    10003b6d:	55                   	push   %rbp
    10003b6e:	48 89 e5             	mov    %rsp,%rbp
    10003b71:	48 83 ec 10          	sub    $0x10,%rsp
    10003b75:	89 7d fc             	mov    %edi,-0x4(%rbp)
    10003b78:	48 89 75 f0          	mov    %rsi,-0x10(%rbp)
    10003b7c:	8b 45 fc             	mov    -0x4(%rbp),%eax
    10003b7f:	89 c7                	mov    %eax,%edi
    10003b81:	e8 75 04 00 00       	callq  10003ffb <sys_putc>
    10003b86:	48 8b 45 f0          	mov    -0x10(%rbp),%rax
    10003b8a:	8b 00                	mov    (%rax),%eax
    10003b8c:	8d 50 01             	lea    0x1(%rax),%edx
    10003b8f:	48 8b 45 f0          	mov    -0x10(%rbp),%rax
    10003b93:	89 10                	mov    %edx,(%rax)
    10003b95:	90                   	nop
    10003b96:	c9                   	leaveq 
    10003b97:	c3                   	retq   

0000000010003b98 <vcprintf>:
    10003b98:	55                   	push   %rbp
    10003b99:	48 89 e5             	mov    %rsp,%rbp
    10003b9c:	48 83 ec 20          	sub    $0x20,%rsp
    10003ba0:	48 89 7d e8          	mov    %rdi,-0x18(%rbp)
    10003ba4:	48 89 75 e0          	mov    %rsi,-0x20(%rbp)
    10003ba8:	c7 45 fc 00 00 00 00 	movl   $0x0,-0x4(%rbp)
    10003baf:	48 8b 4d e0          	mov    -0x20(%rbp),%rcx
    10003bb3:	48 8b 55 e8          	mov    -0x18(%rbp),%rdx
    10003bb7:	48 8d 45 fc          	lea    -0x4(%rbp),%rax
    10003bbb:	49 89 c8             	mov    %rcx,%r8
    10003bbe:	48 89 d1             	mov    %rdx,%rcx
    10003bc1:	48 89 c2             	mov    %rax,%rdx
    10003bc4:	be d9 6a ff ff       	mov    $0xffff6ad9,%esi
    10003bc9:	bf 6d 3b 00 10       	mov    $0x10003b6d,%edi
    10003bce:	e8 b8 14 00 00       	callq  1000508b <vprintfmt>
    10003bd3:	8b 45 fc             	mov    -0x4(%rbp),%eax
    10003bd6:	c9                   	leaveq 
    10003bd7:	c3                   	retq   

0000000010003bd8 <cprintf>:
    10003bd8:	55                   	push   %rbp
    10003bd9:	48 89 e5             	mov    %rsp,%rbp
    10003bdc:	48 81 ec e0 00 00 00 	sub    $0xe0,%rsp
    10003be3:	48 89 bd 28 ff ff ff 	mov    %rdi,-0xd8(%rbp)
    10003bea:	48 89 b5 58 ff ff ff 	mov    %rsi,-0xa8(%rbp)
    10003bf1:	48 89 95 60 ff ff ff 	mov    %rdx,-0xa0(%rbp)
    10003bf8:	48 89 8d 68 ff ff ff 	mov    %rcx,-0x98(%rbp)
    10003bff:	4c 89 85 70 ff ff ff 	mov    %r8,-0x90(%rbp)
    10003c06:	4c 89 8d 78 ff ff ff 	mov    %r9,-0x88(%rbp)
    10003c0d:	84 c0                	test   %al,%al
    10003c0f:	74 20                	je     10003c31 <cprintf+0x59>
    10003c11:	0f 29 45 80          	movaps %xmm0,-0x80(%rbp)
    10003c15:	0f 29 4d 90          	movaps %xmm1,-0x70(%rbp)
    10003c19:	0f 29 55 a0          	movaps %xmm2,-0x60(%rbp)
    10003c1d:	0f 29 5d b0          	movaps %xmm3,-0x50(%rbp)
    10003c21:	0f 29 65 c0          	movaps %xmm4,-0x40(%rbp)
    10003c25:	0f 29 6d d0          	movaps %xmm5,-0x30(%rbp)
    10003c29:	0f 29 75 e0          	movaps %xmm6,-0x20(%rbp)
    10003c2d:	0f 29 7d f0          	movaps %xmm7,-0x10(%rbp)
    10003c31:	c7 85 30 ff ff ff 08 	movl   $0x8,-0xd0(%rbp)
    10003c38:	00 00 00 
    10003c3b:	c7 85 34 ff ff ff 30 	movl   $0x30,-0xcc(%rbp)
    10003c42:	00 00 00 
    10003c45:	48 8d 45 10          	lea    0x10(%rbp),%rax
    10003c49:	48 89 85 38 ff ff ff 	mov    %rax,-0xc8(%rbp)
    10003c50:	48 8d 85 50 ff ff ff 	lea    -0xb0(%rbp),%rax
    10003c57:	48 89 85 40 ff ff ff 	mov    %rax,-0xc0(%rbp)
    10003c5e:	48 8d 95 30 ff ff ff 	lea    -0xd0(%rbp),%rdx
    10003c65:	48 8b 85 28 ff ff ff 	mov    -0xd8(%rbp),%rax
    10003c6c:	48 89 d6             	mov    %rdx,%rsi
    10003c6f:	48 89 c7             	mov    %rax,%rdi
    10003c72:	e8 21 ff ff ff       	callq  10003b98 <vcprintf>
    10003c77:	89 85 4c ff ff ff    	mov    %eax,-0xb4(%rbp)
    10003c7d:	8b 85 4c ff ff ff    	mov    -0xb4(%rbp),%eax
    10003c83:	c9                   	leaveq 
    10003c84:	c3                   	retq   

0000000010003c85 <cputs>:
    10003c85:	55                   	push   %rbp
    10003c86:	48 89 e5             	mov    %rsp,%rbp
    10003c89:	48 83 ec 20          	sub    $0x20,%rsp
    10003c8d:	48 89 7d e8          	mov    %rdi,-0x18(%rbp)
    10003c91:	c7 45 f8 00 00 00 00 	movl   $0x0,-0x8(%rbp)
    10003c98:	eb 12                	jmp    10003cac <cputs+0x27>
    10003c9a:	0f be 45 ff          	movsbl -0x1(%rbp),%eax
    10003c9e:	48 8d 55 f8          	lea    -0x8(%rbp),%rdx
    10003ca2:	48 89 d6             	mov    %rdx,%rsi
    10003ca5:	89 c7                	mov    %eax,%edi
    10003ca7:	e8 c1 fe ff ff       	callq  10003b6d <cputch>
    10003cac:	48 8b 45 e8          	mov    -0x18(%rbp),%rax
    10003cb0:	48 8d 50 01          	lea    0x1(%rax),%rdx
    10003cb4:	48 89 55 e8          	mov    %rdx,-0x18(%rbp)
    10003cb8:	0f b6 00             	movzbl (%rax),%eax
    10003cbb:	88 45 ff             	mov    %al,-0x1(%rbp)
    10003cbe:	80 7d ff 00          	cmpb   $0x0,-0x1(%rbp)
    10003cc2:	75 d6                	jne    10003c9a <cputs+0x15>
    10003cc4:	48 8d 45 f8          	lea    -0x8(%rbp),%rax
    10003cc8:	48 89 c6             	mov    %rax,%rsi
    10003ccb:	bf 0a 00 00 00       	mov    $0xa,%edi
    10003cd0:	e8 98 fe ff ff       	callq  10003b6d <cputch>
    10003cd5:	8b 45 f8             	mov    -0x8(%rbp),%eax
    10003cd8:	c9                   	leaveq 
    10003cd9:	c3                   	retq   

0000000010003cda <fputch>:
    10003cda:	55                   	push   %rbp
    10003cdb:	48 89 e5             	mov    %rsp,%rbp
    10003cde:	48 83 ec 10          	sub    $0x10,%rsp
    10003ce2:	89 f8                	mov    %edi,%eax
    10003ce4:	48 89 75 f0          	mov    %rsi,-0x10(%rbp)
    10003ce8:	89 55 f8             	mov    %edx,-0x8(%rbp)
    10003ceb:	88 45 fc             	mov    %al,-0x4(%rbp)
    10003cee:	48 8d 4d fc          	lea    -0x4(%rbp),%rcx
    10003cf2:	8b 45 f8             	mov    -0x8(%rbp),%eax
    10003cf5:	ba 01 00 00 00       	mov    $0x1,%edx
    10003cfa:	48 89 ce             	mov    %rcx,%rsi
    10003cfd:	89 c7                	mov    %eax,%edi
    10003cff:	e8 7a f6 ff ff       	callq  1000337e <write>
    10003d04:	48 8b 45 f0          	mov    -0x10(%rbp),%rax
    10003d08:	8b 00                	mov    (%rax),%eax
    10003d0a:	8d 50 01             	lea    0x1(%rax),%edx
    10003d0d:	48 8b 45 f0          	mov    -0x10(%rbp),%rax
    10003d11:	89 10                	mov    %edx,(%rax)
    10003d13:	90                   	nop
    10003d14:	c9                   	leaveq 
    10003d15:	c3                   	retq   

0000000010003d16 <vfprintf>:
    10003d16:	55                   	push   %rbp
    10003d17:	48 89 e5             	mov    %rsp,%rbp
    10003d1a:	48 83 ec 30          	sub    $0x30,%rsp
    10003d1e:	89 7d ec             	mov    %edi,-0x14(%rbp)
    10003d21:	48 89 75 e0          	mov    %rsi,-0x20(%rbp)
    10003d25:	48 89 55 d8          	mov    %rdx,-0x28(%rbp)
    10003d29:	c7 45 fc 00 00 00 00 	movl   $0x0,-0x4(%rbp)
    10003d30:	48 8b 75 d8          	mov    -0x28(%rbp),%rsi
    10003d34:	48 8b 4d e0          	mov    -0x20(%rbp),%rcx
    10003d38:	48 8d 55 fc          	lea    -0x4(%rbp),%rdx
    10003d3c:	8b 45 ec             	mov    -0x14(%rbp),%eax
    10003d3f:	49 89 f0             	mov    %rsi,%r8
    10003d42:	89 c6                	mov    %eax,%esi
    10003d44:	bf da 3c 00 10       	mov    $0x10003cda,%edi
    10003d49:	e8 3d 13 00 00       	callq  1000508b <vprintfmt>
    10003d4e:	8b 45 fc             	mov    -0x4(%rbp),%eax
    10003d51:	c9                   	leaveq 
    10003d52:	c3                   	retq   

0000000010003d53 <fprintf>:
    10003d53:	55                   	push   %rbp
    10003d54:	48 89 e5             	mov    %rsp,%rbp
    10003d57:	48 81 ec e0 00 00 00 	sub    $0xe0,%rsp
    10003d5e:	89 bd 2c ff ff ff    	mov    %edi,-0xd4(%rbp)
    10003d64:	48 89 b5 20 ff ff ff 	mov    %rsi,-0xe0(%rbp)
    10003d6b:	48 89 95 60 ff ff ff 	mov    %rdx,-0xa0(%rbp)
    10003d72:	48 89 8d 68 ff ff ff 	mov    %rcx,-0x98(%rbp)
    10003d79:	4c 89 85 70 ff ff ff 	mov    %r8,-0x90(%rbp)
    10003d80:	4c 89 8d 78 ff ff ff 	mov    %r9,-0x88(%rbp)
    10003d87:	84 c0                	test   %al,%al
    10003d89:	74 20                	je     10003dab <fprintf+0x58>
    10003d8b:	0f 29 45 80          	movaps %xmm0,-0x80(%rbp)
    10003d8f:	0f 29 4d 90          	movaps %xmm1,-0x70(%rbp)
    10003d93:	0f 29 55 a0          	movaps %xmm2,-0x60(%rbp)
    10003d97:	0f 29 5d b0          	movaps %xmm3,-0x50(%rbp)
    10003d9b:	0f 29 65 c0          	movaps %xmm4,-0x40(%rbp)
    10003d9f:	0f 29 6d d0          	movaps %xmm5,-0x30(%rbp)
    10003da3:	0f 29 75 e0          	movaps %xmm6,-0x20(%rbp)
    10003da7:	0f 29 7d f0          	movaps %xmm7,-0x10(%rbp)
    10003dab:	c7 85 30 ff ff ff 10 	movl   $0x10,-0xd0(%rbp)
    10003db2:	00 00 00 
    10003db5:	c7 85 34 ff ff ff 30 	movl   $0x30,-0xcc(%rbp)
    10003dbc:	00 00 00 
    10003dbf:	48 8d 45 10          	lea    0x10(%rbp),%rax
    10003dc3:	48 89 85 38 ff ff ff 	mov    %rax,-0xc8(%rbp)
    10003dca:	48 8d 85 50 ff ff ff 	lea    -0xb0(%rbp),%rax
    10003dd1:	48 89 85 40 ff ff ff 	mov    %rax,-0xc0(%rbp)
    10003dd8:	48 8d 95 30 ff ff ff 	lea    -0xd0(%rbp),%rdx
    10003ddf:	48 8b 8d 20 ff ff ff 	mov    -0xe0(%rbp),%rcx
    10003de6:	8b 85 2c ff ff ff    	mov    -0xd4(%rbp),%eax
    10003dec:	48 89 ce             	mov    %rcx,%rsi
    10003def:	89 c7                	mov    %eax,%edi
    10003df1:	e8 20 ff ff ff       	callq  10003d16 <vfprintf>
    10003df6:	89 85 4c ff ff ff    	mov    %eax,-0xb4(%rbp)
    10003dfc:	8b 85 4c ff ff ff    	mov    -0xb4(%rbp),%eax
    10003e02:	c9                   	leaveq 
    10003e03:	c3                   	retq   

0000000010003e04 <sys_exit>:
    10003e04:	55                   	push   %rbp
    10003e05:	48 89 e5             	mov    %rsp,%rbp
    10003e08:	48 83 ec 10          	sub    $0x10,%rsp
    10003e0c:	89 7d fc             	mov    %edi,-0x4(%rbp)
    10003e0f:	8b 45 fc             	mov    -0x4(%rbp),%eax
    10003e12:	89 c6                	mov    %eax,%esi
    10003e14:	bf 01 00 00 00       	mov    $0x1,%edi
    10003e19:	b8 00 00 00 00       	mov    $0x0,%eax
    10003e1e:	e8 97 22 00 00       	callq  100060ba <syscall>
    10003e23:	c9                   	leaveq 
    10003e24:	c3                   	retq   

0000000010003e25 <sys_fork>:
    10003e25:	55                   	push   %rbp
    10003e26:	48 89 e5             	mov    %rsp,%rbp
    10003e29:	bf 02 00 00 00       	mov    $0x2,%edi
    10003e2e:	b8 00 00 00 00       	mov    $0x0,%eax
    10003e33:	e8 82 22 00 00       	callq  100060ba <syscall>
    10003e38:	5d                   	pop    %rbp
    10003e39:	c3                   	retq   

0000000010003e3a <sys_wait>:
    10003e3a:	55                   	push   %rbp
    10003e3b:	48 89 e5             	mov    %rsp,%rbp
    10003e3e:	48 83 ec 10          	sub    $0x10,%rsp
    10003e42:	89 7d fc             	mov    %edi,-0x4(%rbp)
    10003e45:	48 89 75 f0          	mov    %rsi,-0x10(%rbp)
    10003e49:	48 8b 55 f0          	mov    -0x10(%rbp),%rdx
    10003e4d:	8b 45 fc             	mov    -0x4(%rbp),%eax
    10003e50:	89 c6                	mov    %eax,%esi
    10003e52:	bf 03 00 00 00       	mov    $0x3,%edi
    10003e57:	b8 00 00 00 00       	mov    $0x0,%eax
    10003e5c:	e8 59 22 00 00       	callq  100060ba <syscall>
    10003e61:	c9                   	leaveq 
    10003e62:	c3                   	retq   

0000000010003e63 <sys_linux_waitpid>:
    10003e63:	55                   	push   %rbp
    10003e64:	48 89 e5             	mov    %rsp,%rbp
    10003e67:	48 83 ec 10          	sub    $0x10,%rsp
    10003e6b:	89 7d fc             	mov    %edi,-0x4(%rbp)
    10003e6e:	48 89 75 f0          	mov    %rsi,-0x10(%rbp)
    10003e72:	89 55 f8             	mov    %edx,-0x8(%rbp)
    10003e75:	8b 4d f8             	mov    -0x8(%rbp),%ecx
    10003e78:	48 8b 55 f0          	mov    -0x10(%rbp),%rdx
    10003e7c:	8b 45 fc             	mov    -0x4(%rbp),%eax
    10003e7f:	89 c6                	mov    %eax,%esi
    10003e81:	bf 9f 00 00 00       	mov    $0x9f,%edi
    10003e86:	b8 00 00 00 00       	mov    $0x0,%eax
    10003e8b:	e8 2a 22 00 00       	callq  100060ba <syscall>
    10003e90:	c9                   	leaveq 
    10003e91:	c3                   	retq   

0000000010003e92 <sys_exec>:
    10003e92:	55                   	push   %rbp
    10003e93:	48 89 e5             	mov    %rsp,%rbp
    10003e96:	48 83 ec 20          	sub    $0x20,%rsp
    10003e9a:	48 89 7d f8          	mov    %rdi,-0x8(%rbp)
    10003e9e:	48 89 75 f0          	mov    %rsi,-0x10(%rbp)
    10003ea2:	48 89 55 e8          	mov    %rdx,-0x18(%rbp)
    10003ea6:	48 8b 4d e8          	mov    -0x18(%rbp),%rcx
    10003eaa:	48 8b 55 f0          	mov    -0x10(%rbp),%rdx
    10003eae:	48 8b 45 f8          	mov    -0x8(%rbp),%rax
    10003eb2:	48 89 c6             	mov    %rax,%rsi
    10003eb5:	bf 04 00 00 00       	mov    $0x4,%edi
    10003eba:	b8 00 00 00 00       	mov    $0x0,%eax
    10003ebf:	e8 f6 21 00 00       	callq  100060ba <syscall>
    10003ec4:	c9                   	leaveq 
    10003ec5:	c3                   	retq   

0000000010003ec6 <sys_yield>:
    10003ec6:	55                   	push   %rbp
    10003ec7:	48 89 e5             	mov    %rsp,%rbp
    10003eca:	bf 0a 00 00 00       	mov    $0xa,%edi
    10003ecf:	b8 00 00 00 00       	mov    $0x0,%eax
    10003ed4:	e8 e1 21 00 00       	callq  100060ba <syscall>
    10003ed9:	5d                   	pop    %rbp
    10003eda:	c3                   	retq   

0000000010003edb <sys_sleep>:
    10003edb:	55                   	push   %rbp
    10003edc:	48 89 e5             	mov    %rsp,%rbp
    10003edf:	48 83 ec 10          	sub    $0x10,%rsp
    10003ee3:	89 7d fc             	mov    %edi,-0x4(%rbp)
    10003ee6:	8b 45 fc             	mov    -0x4(%rbp),%eax
    10003ee9:	89 c6                	mov    %eax,%esi
    10003eeb:	bf 0b 00 00 00       	mov    $0xb,%edi
    10003ef0:	b8 00 00 00 00       	mov    $0x0,%eax
    10003ef5:	e8 c0 21 00 00       	callq  100060ba <syscall>
    10003efa:	c9                   	leaveq 
    10003efb:	c3                   	retq   

0000000010003efc <sys_kill>:
    10003efc:	55                   	push   %rbp
    10003efd:	48 89 e5             	mov    %rsp,%rbp
    10003f00:	48 83 ec 10          	sub    $0x10,%rsp
    10003f04:	89 7d fc             	mov    %edi,-0x4(%rbp)
    10003f07:	8b 45 fc             	mov    -0x4(%rbp),%eax
    10003f0a:	89 c6                	mov    %eax,%esi
    10003f0c:	bf 0c 00 00 00       	mov    $0xc,%edi
    10003f11:	b8 00 00 00 00       	mov    $0x0,%eax
    10003f16:	e8 9f 21 00 00       	callq  100060ba <syscall>
    10003f1b:	c9                   	leaveq 
    10003f1c:	c3                   	retq   

0000000010003f1d <sys_gettime>:
    10003f1d:	55                   	push   %rbp
    10003f1e:	48 89 e5             	mov    %rsp,%rbp
    10003f21:	bf 11 00 00 00       	mov    $0x11,%edi
    10003f26:	b8 00 00 00 00       	mov    $0x0,%eax
    10003f2b:	e8 8a 21 00 00       	callq  100060ba <syscall>
    10003f30:	5d                   	pop    %rbp
    10003f31:	c3                   	retq   

0000000010003f32 <sys_getpid>:
    10003f32:	55                   	push   %rbp
    10003f33:	48 89 e5             	mov    %rsp,%rbp
    10003f36:	bf 12 00 00 00       	mov    $0x12,%edi
    10003f3b:	b8 00 00 00 00       	mov    $0x0,%eax
    10003f40:	e8 75 21 00 00       	callq  100060ba <syscall>
    10003f45:	5d                   	pop    %rbp
    10003f46:	c3                   	retq   

0000000010003f47 <sys_brk>:
    10003f47:	55                   	push   %rbp
    10003f48:	48 89 e5             	mov    %rsp,%rbp
    10003f4b:	48 83 ec 10          	sub    $0x10,%rsp
    10003f4f:	48 89 7d f8          	mov    %rdi,-0x8(%rbp)
    10003f53:	48 8b 45 f8          	mov    -0x8(%rbp),%rax
    10003f57:	48 89 c6             	mov    %rax,%rsi
    10003f5a:	bf 13 00 00 00       	mov    $0x13,%edi
    10003f5f:	b8 00 00 00 00       	mov    $0x0,%eax
    10003f64:	e8 51 21 00 00       	callq  100060ba <syscall>
    10003f69:	c9                   	leaveq 
    10003f6a:	c3                   	retq   

0000000010003f6b <sys_mmap>:
    10003f6b:	55                   	push   %rbp
    10003f6c:	48 89 e5             	mov    %rsp,%rbp
    10003f6f:	48 83 ec 20          	sub    $0x20,%rsp
    10003f73:	48 89 7d f8          	mov    %rdi,-0x8(%rbp)
    10003f77:	48 89 75 f0          	mov    %rsi,-0x10(%rbp)
    10003f7b:	89 55 ec             	mov    %edx,-0x14(%rbp)
    10003f7e:	8b 4d ec             	mov    -0x14(%rbp),%ecx
    10003f81:	48 8b 55 f0          	mov    -0x10(%rbp),%rdx
    10003f85:	48 8b 45 f8          	mov    -0x8(%rbp),%rax
    10003f89:	48 89 c6             	mov    %rax,%rsi
    10003f8c:	bf 14 00 00 00       	mov    $0x14,%edi
    10003f91:	b8 00 00 00 00       	mov    $0x0,%eax
    10003f96:	e8 1f 21 00 00       	callq  100060ba <syscall>
    10003f9b:	c9                   	leaveq 
    10003f9c:	c3                   	retq   

0000000010003f9d <sys_munmap>:
    10003f9d:	55                   	push   %rbp
    10003f9e:	48 89 e5             	mov    %rsp,%rbp
    10003fa1:	48 83 ec 10          	sub    $0x10,%rsp
    10003fa5:	48 89 7d f8          	mov    %rdi,-0x8(%rbp)
    10003fa9:	48 89 75 f0          	mov    %rsi,-0x10(%rbp)
    10003fad:	48 8b 55 f0          	mov    -0x10(%rbp),%rdx
    10003fb1:	48 8b 45 f8          	mov    -0x8(%rbp),%rax
    10003fb5:	48 89 c6             	mov    %rax,%rsi
    10003fb8:	bf 15 00 00 00       	mov    $0x15,%edi
    10003fbd:	b8 00 00 00 00       	mov    $0x0,%eax
    10003fc2:	e8 f3 20 00 00       	callq  100060ba <syscall>
    10003fc7:	c9                   	leaveq 
    10003fc8:	c3                   	retq   

0000000010003fc9 <sys_shmem>:
    10003fc9:	55                   	push   %rbp
    10003fca:	48 89 e5             	mov    %rsp,%rbp
    10003fcd:	48 83 ec 20          	sub    $0x20,%rsp
    10003fd1:	48 89 7d f8          	mov    %rdi,-0x8(%rbp)
    10003fd5:	48 89 75 f0          	mov    %rsi,-0x10(%rbp)
    10003fd9:	89 55 ec             	mov    %edx,-0x14(%rbp)
    10003fdc:	8b 4d ec             	mov    -0x14(%rbp),%ecx
    10003fdf:	48 8b 55 f0          	mov    -0x10(%rbp),%rdx
    10003fe3:	48 8b 45 f8          	mov    -0x8(%rbp),%rax
    10003fe7:	48 89 c6             	mov    %rax,%rsi
    10003fea:	bf 16 00 00 00       	mov    $0x16,%edi
    10003fef:	b8 00 00 00 00       	mov    $0x0,%eax
    10003ff4:	e8 c1 20 00 00       	callq  100060ba <syscall>
    10003ff9:	c9                   	leaveq 
    10003ffa:	c3                   	retq   

0000000010003ffb <sys_putc>:
    10003ffb:	55                   	push   %rbp
    10003ffc:	48 89 e5             	mov    %rsp,%rbp
    10003fff:	48 83 ec 10          	sub    $0x10,%rsp
    10004003:	89 7d fc             	mov    %edi,-0x4(%rbp)
    10004006:	8b 45 fc             	mov    -0x4(%rbp),%eax
    10004009:	89 c6                	mov    %eax,%esi
    1000400b:	bf 1e 00 00 00       	mov    $0x1e,%edi
    10004010:	b8 00 00 00 00       	mov    $0x0,%eax
    10004015:	e8 a0 20 00 00       	callq  100060ba <syscall>
    1000401a:	c9                   	leaveq 
    1000401b:	c3                   	retq   

000000001000401c <sys_pgdir>:
    1000401c:	55                   	push   %rbp
    1000401d:	48 89 e5             	mov    %rsp,%rbp
    10004020:	bf 1f 00 00 00       	mov    $0x1f,%edi
    10004025:	b8 00 00 00 00       	mov    $0x0,%eax
    1000402a:	e8 8b 20 00 00       	callq  100060ba <syscall>
    1000402f:	5d                   	pop    %rbp
    10004030:	c3                   	retq   

0000000010004031 <sys_sem_init>:
    10004031:	55                   	push   %rbp
    10004032:	48 89 e5             	mov    %rsp,%rbp
    10004035:	48 83 ec 10          	sub    $0x10,%rsp
    10004039:	89 7d fc             	mov    %edi,-0x4(%rbp)
    1000403c:	8b 45 fc             	mov    -0x4(%rbp),%eax
    1000403f:	89 c6                	mov    %eax,%esi
    10004041:	bf 28 00 00 00       	mov    $0x28,%edi
    10004046:	b8 00 00 00 00       	mov    $0x0,%eax
    1000404b:	e8 6a 20 00 00       	callq  100060ba <syscall>
    10004050:	c9                   	leaveq 
    10004051:	c3                   	retq   

0000000010004052 <sys_sem_post>:
    10004052:	55                   	push   %rbp
    10004053:	48 89 e5             	mov    %rsp,%rbp
    10004056:	48 83 ec 10          	sub    $0x10,%rsp
    1000405a:	48 89 7d f8          	mov    %rdi,-0x8(%rbp)
    1000405e:	48 8b 45 f8          	mov    -0x8(%rbp),%rax
    10004062:	48 89 c6             	mov    %rax,%rsi
    10004065:	bf 29 00 00 00       	mov    $0x29,%edi
    1000406a:	b8 00 00 00 00       	mov    $0x0,%eax
    1000406f:	e8 46 20 00 00       	callq  100060ba <syscall>
    10004074:	c9                   	leaveq 
    10004075:	c3                   	retq   

0000000010004076 <sys_sem_wait>:
    10004076:	55                   	push   %rbp
    10004077:	48 89 e5             	mov    %rsp,%rbp
    1000407a:	48 83 ec 10          	sub    $0x10,%rsp
    1000407e:	48 89 7d f8          	mov    %rdi,-0x8(%rbp)
    10004082:	89 75 f4             	mov    %esi,-0xc(%rbp)
    10004085:	8b 55 f4             	mov    -0xc(%rbp),%edx
    10004088:	48 8b 45 f8          	mov    -0x8(%rbp),%rax
    1000408c:	48 89 c6             	mov    %rax,%rsi
    1000408f:	bf 2a 00 00 00       	mov    $0x2a,%edi
    10004094:	b8 00 00 00 00       	mov    $0x0,%eax
    10004099:	e8 1c 20 00 00       	callq  100060ba <syscall>
    1000409e:	c9                   	leaveq 
    1000409f:	c3                   	retq   

00000000100040a0 <sys_sem_free>:
    100040a0:	55                   	push   %rbp
    100040a1:	48 89 e5             	mov    %rsp,%rbp
    100040a4:	48 83 ec 10          	sub    $0x10,%rsp
    100040a8:	48 89 7d f8          	mov    %rdi,-0x8(%rbp)
    100040ac:	48 8b 45 f8          	mov    -0x8(%rbp),%rax
    100040b0:	48 89 c6             	mov    %rax,%rsi
    100040b3:	bf 2b 00 00 00       	mov    $0x2b,%edi
    100040b8:	b8 00 00 00 00       	mov    $0x0,%eax
    100040bd:	e8 f8 1f 00 00       	callq  100060ba <syscall>
    100040c2:	c9                   	leaveq 
    100040c3:	c3                   	retq   

00000000100040c4 <sys_sem_get_value>:
    100040c4:	55                   	push   %rbp
    100040c5:	48 89 e5             	mov    %rsp,%rbp
    100040c8:	48 83 ec 10          	sub    $0x10,%rsp
    100040cc:	48 89 7d f8          	mov    %rdi,-0x8(%rbp)
    100040d0:	48 89 75 f0          	mov    %rsi,-0x10(%rbp)
    100040d4:	48 8b 55 f0          	mov    -0x10(%rbp),%rdx
    100040d8:	48 8b 45 f8          	mov    -0x8(%rbp),%rax
    100040dc:	48 89 c6             	mov    %rax,%rsi
    100040df:	bf 2c 00 00 00       	mov    $0x2c,%edi
    100040e4:	b8 00 00 00 00       	mov    $0x0,%eax
    100040e9:	e8 cc 1f 00 00       	callq  100060ba <syscall>
    100040ee:	c9                   	leaveq 
    100040ef:	c3                   	retq   

00000000100040f0 <sys_send_event>:
    100040f0:	55                   	push   %rbp
    100040f1:	48 89 e5             	mov    %rsp,%rbp
    100040f4:	48 83 ec 10          	sub    $0x10,%rsp
    100040f8:	89 7d fc             	mov    %edi,-0x4(%rbp)
    100040fb:	89 75 f8             	mov    %esi,-0x8(%rbp)
    100040fe:	89 55 f4             	mov    %edx,-0xc(%rbp)
    10004101:	8b 4d f4             	mov    -0xc(%rbp),%ecx
    10004104:	8b 55 f8             	mov    -0x8(%rbp),%edx
    10004107:	8b 45 fc             	mov    -0x4(%rbp),%eax
    1000410a:	89 c6                	mov    %eax,%esi
    1000410c:	bf 30 00 00 00       	mov    $0x30,%edi
    10004111:	b8 00 00 00 00       	mov    $0x0,%eax
    10004116:	e8 9f 1f 00 00       	callq  100060ba <syscall>
    1000411b:	c9                   	leaveq 
    1000411c:	c3                   	retq   

000000001000411d <sys_recv_event>:
    1000411d:	55                   	push   %rbp
    1000411e:	48 89 e5             	mov    %rsp,%rbp
    10004121:	48 83 ec 20          	sub    $0x20,%rsp
    10004125:	48 89 7d f8          	mov    %rdi,-0x8(%rbp)
    10004129:	48 89 75 f0          	mov    %rsi,-0x10(%rbp)
    1000412d:	89 55 ec             	mov    %edx,-0x14(%rbp)
    10004130:	8b 4d ec             	mov    -0x14(%rbp),%ecx
    10004133:	48 8b 55 f0          	mov    -0x10(%rbp),%rdx
    10004137:	48 8b 45 f8          	mov    -0x8(%rbp),%rax
    1000413b:	48 89 c6             	mov    %rax,%rsi
    1000413e:	bf 31 00 00 00       	mov    $0x31,%edi
    10004143:	b8 00 00 00 00       	mov    $0x0,%eax
    10004148:	e8 6d 1f 00 00       	callq  100060ba <syscall>
    1000414d:	c9                   	leaveq 
    1000414e:	c3                   	retq   

000000001000414f <sys_mbox_init>:
    1000414f:	55                   	push   %rbp
    10004150:	48 89 e5             	mov    %rsp,%rbp
    10004153:	48 83 ec 10          	sub    $0x10,%rsp
    10004157:	89 7d fc             	mov    %edi,-0x4(%rbp)
    1000415a:	8b 45 fc             	mov    -0x4(%rbp),%eax
    1000415d:	89 c6                	mov    %eax,%esi
    1000415f:	bf 32 00 00 00       	mov    $0x32,%edi
    10004164:	b8 00 00 00 00       	mov    $0x0,%eax
    10004169:	e8 4c 1f 00 00       	callq  100060ba <syscall>
    1000416e:	c9                   	leaveq 
    1000416f:	c3                   	retq   

0000000010004170 <sys_mbox_send>:
    10004170:	55                   	push   %rbp
    10004171:	48 89 e5             	mov    %rsp,%rbp
    10004174:	48 83 ec 10          	sub    $0x10,%rsp
    10004178:	89 7d fc             	mov    %edi,-0x4(%rbp)
    1000417b:	48 89 75 f0          	mov    %rsi,-0x10(%rbp)
    1000417f:	89 55 f8             	mov    %edx,-0x8(%rbp)
    10004182:	8b 4d f8             	mov    -0x8(%rbp),%ecx
    10004185:	48 8b 55 f0          	mov    -0x10(%rbp),%rdx
    10004189:	8b 45 fc             	mov    -0x4(%rbp),%eax
    1000418c:	89 c6                	mov    %eax,%esi
    1000418e:	bf 33 00 00 00       	mov    $0x33,%edi
    10004193:	b8 00 00 00 00       	mov    $0x0,%eax
    10004198:	e8 1d 1f 00 00       	callq  100060ba <syscall>
    1000419d:	c9                   	leaveq 
    1000419e:	c3                   	retq   

000000001000419f <sys_mbox_recv>:
    1000419f:	55                   	push   %rbp
    100041a0:	48 89 e5             	mov    %rsp,%rbp
    100041a3:	48 83 ec 10          	sub    $0x10,%rsp
    100041a7:	89 7d fc             	mov    %edi,-0x4(%rbp)
    100041aa:	48 89 75 f0          	mov    %rsi,-0x10(%rbp)
    100041ae:	89 55 f8             	mov    %edx,-0x8(%rbp)
    100041b1:	8b 4d f8             	mov    -0x8(%rbp),%ecx
    100041b4:	48 8b 55 f0          	mov    -0x10(%rbp),%rdx
    100041b8:	8b 45 fc             	mov    -0x4(%rbp),%eax
    100041bb:	89 c6                	mov    %eax,%esi
    100041bd:	bf 34 00 00 00       	mov    $0x34,%edi
    100041c2:	b8 00 00 00 00       	mov    $0x0,%eax
    100041c7:	e8 ee 1e 00 00       	callq  100060ba <syscall>
    100041cc:	c9                   	leaveq 
    100041cd:	c3                   	retq   

00000000100041ce <sys_mbox_free>:
    100041ce:	55                   	push   %rbp
    100041cf:	48 89 e5             	mov    %rsp,%rbp
    100041d2:	48 83 ec 10          	sub    $0x10,%rsp
    100041d6:	89 7d fc             	mov    %edi,-0x4(%rbp)
    100041d9:	8b 45 fc             	mov    -0x4(%rbp),%eax
    100041dc:	89 c6                	mov    %eax,%esi
    100041de:	bf 35 00 00 00       	mov    $0x35,%edi
    100041e3:	b8 00 00 00 00       	mov    $0x0,%eax
    100041e8:	e8 cd 1e 00 00       	callq  100060ba <syscall>
    100041ed:	c9                   	leaveq 
    100041ee:	c3                   	retq   

00000000100041ef <sys_mbox_info>:
    100041ef:	55                   	push   %rbp
    100041f0:	48 89 e5             	mov    %rsp,%rbp
    100041f3:	48 83 ec 10          	sub    $0x10,%rsp
    100041f7:	89 7d fc             	mov    %edi,-0x4(%rbp)
    100041fa:	48 89 75 f0          	mov    %rsi,-0x10(%rbp)
    100041fe:	48 8b 55 f0          	mov    -0x10(%rbp),%rdx
    10004202:	8b 45 fc             	mov    -0x4(%rbp),%eax
    10004205:	89 c6                	mov    %eax,%esi
    10004207:	bf 36 00 00 00       	mov    $0x36,%edi
    1000420c:	b8 00 00 00 00       	mov    $0x0,%eax
    10004211:	e8 a4 1e 00 00       	callq  100060ba <syscall>
    10004216:	c9                   	leaveq 
    10004217:	c3                   	retq   

0000000010004218 <sys_open>:
    10004218:	55                   	push   %rbp
    10004219:	48 89 e5             	mov    %rsp,%rbp
    1000421c:	48 83 ec 10          	sub    $0x10,%rsp
    10004220:	48 89 7d f8          	mov    %rdi,-0x8(%rbp)
    10004224:	89 75 f4             	mov    %esi,-0xc(%rbp)
    10004227:	8b 55 f4             	mov    -0xc(%rbp),%edx
    1000422a:	48 8b 45 f8          	mov    -0x8(%rbp),%rax
    1000422e:	48 89 c6             	mov    %rax,%rsi
    10004231:	bf 64 00 00 00       	mov    $0x64,%edi
    10004236:	b8 00 00 00 00       	mov    $0x0,%eax
    1000423b:	e8 7a 1e 00 00       	callq  100060ba <syscall>
    10004240:	c9                   	leaveq 
    10004241:	c3                   	retq   

0000000010004242 <sys_close>:
    10004242:	55                   	push   %rbp
    10004243:	48 89 e5             	mov    %rsp,%rbp
    10004246:	48 83 ec 10          	sub    $0x10,%rsp
    1000424a:	89 7d fc             	mov    %edi,-0x4(%rbp)
    1000424d:	8b 45 fc             	mov    -0x4(%rbp),%eax
    10004250:	89 c6                	mov    %eax,%esi
    10004252:	bf 65 00 00 00       	mov    $0x65,%edi
    10004257:	b8 00 00 00 00       	mov    $0x0,%eax
    1000425c:	e8 59 1e 00 00       	callq  100060ba <syscall>
    10004261:	c9                   	leaveq 
    10004262:	c3                   	retq   

0000000010004263 <sys_read>:
    10004263:	55                   	push   %rbp
    10004264:	48 89 e5             	mov    %rsp,%rbp
    10004267:	48 83 ec 20          	sub    $0x20,%rsp
    1000426b:	89 7d fc             	mov    %edi,-0x4(%rbp)
    1000426e:	48 89 75 f0          	mov    %rsi,-0x10(%rbp)
    10004272:	48 89 55 e8          	mov    %rdx,-0x18(%rbp)
    10004276:	48 8b 4d e8          	mov    -0x18(%rbp),%rcx
    1000427a:	48 8b 55 f0          	mov    -0x10(%rbp),%rdx
    1000427e:	8b 45 fc             	mov    -0x4(%rbp),%eax
    10004281:	89 c6                	mov    %eax,%esi
    10004283:	bf 66 00 00 00       	mov    $0x66,%edi
    10004288:	b8 00 00 00 00       	mov    $0x0,%eax
    1000428d:	e8 28 1e 00 00       	callq  100060ba <syscall>
    10004292:	c9                   	leaveq 
    10004293:	c3                   	retq   

0000000010004294 <sys_write>:
    10004294:	55                   	push   %rbp
    10004295:	48 89 e5             	mov    %rsp,%rbp
    10004298:	48 83 ec 20          	sub    $0x20,%rsp
    1000429c:	89 7d fc             	mov    %edi,-0x4(%rbp)
    1000429f:	48 89 75 f0          	mov    %rsi,-0x10(%rbp)
    100042a3:	48 89 55 e8          	mov    %rdx,-0x18(%rbp)
    100042a7:	48 8b 4d e8          	mov    -0x18(%rbp),%rcx
    100042ab:	48 8b 55 f0          	mov    -0x10(%rbp),%rdx
    100042af:	8b 45 fc             	mov    -0x4(%rbp),%eax
    100042b2:	89 c6                	mov    %eax,%esi
    100042b4:	bf 67 00 00 00       	mov    $0x67,%edi
    100042b9:	b8 00 00 00 00       	mov    $0x0,%eax
    100042be:	e8 f7 1d 00 00       	callq  100060ba <syscall>
    100042c3:	c9                   	leaveq 
    100042c4:	c3                   	retq   

00000000100042c5 <sys_seek>:
    100042c5:	55                   	push   %rbp
    100042c6:	48 89 e5             	mov    %rsp,%rbp
    100042c9:	48 83 ec 10          	sub    $0x10,%rsp
    100042cd:	89 7d fc             	mov    %edi,-0x4(%rbp)
    100042d0:	48 89 75 f0          	mov    %rsi,-0x10(%rbp)
    100042d4:	89 55 f8             	mov    %edx,-0x8(%rbp)
    100042d7:	8b 4d f8             	mov    -0x8(%rbp),%ecx
    100042da:	48 8b 55 f0          	mov    -0x10(%rbp),%rdx
    100042de:	8b 45 fc             	mov    -0x4(%rbp),%eax
    100042e1:	89 c6                	mov    %eax,%esi
    100042e3:	bf 68 00 00 00       	mov    $0x68,%edi
    100042e8:	b8 00 00 00 00       	mov    $0x0,%eax
    100042ed:	e8 c8 1d 00 00       	callq  100060ba <syscall>
    100042f2:	c9                   	leaveq 
    100042f3:	c3                   	retq   

00000000100042f4 <sys_fstat>:
    100042f4:	55                   	push   %rbp
    100042f5:	48 89 e5             	mov    %rsp,%rbp
    100042f8:	48 83 ec 10          	sub    $0x10,%rsp
    100042fc:	89 7d fc             	mov    %edi,-0x4(%rbp)
    100042ff:	48 89 75 f0          	mov    %rsi,-0x10(%rbp)
    10004303:	48 8b 55 f0          	mov    -0x10(%rbp),%rdx
    10004307:	8b 45 fc             	mov    -0x4(%rbp),%eax
    1000430a:	89 c6                	mov    %eax,%esi
    1000430c:	bf 6e 00 00 00       	mov    $0x6e,%edi
    10004311:	b8 00 00 00 00       	mov    $0x0,%eax
    10004316:	e8 9f 1d 00 00       	callq  100060ba <syscall>
    1000431b:	c9                   	leaveq 
    1000431c:	c3                   	retq   

000000001000431d <sys_fsync>:
    1000431d:	55                   	push   %rbp
    1000431e:	48 89 e5             	mov    %rsp,%rbp
    10004321:	48 83 ec 10          	sub    $0x10,%rsp
    10004325:	89 7d fc             	mov    %edi,-0x4(%rbp)
    10004328:	8b 45 fc             	mov    -0x4(%rbp),%eax
    1000432b:	89 c6                	mov    %eax,%esi
    1000432d:	bf 6f 00 00 00       	mov    $0x6f,%edi
    10004332:	b8 00 00 00 00       	mov    $0x0,%eax
    10004337:	e8 7e 1d 00 00       	callq  100060ba <syscall>
    1000433c:	c9                   	leaveq 
    1000433d:	c3                   	retq   

000000001000433e <sys_chdir>:
    1000433e:	55                   	push   %rbp
    1000433f:	48 89 e5             	mov    %rsp,%rbp
    10004342:	48 83 ec 10          	sub    $0x10,%rsp
    10004346:	48 89 7d f8          	mov    %rdi,-0x8(%rbp)
    1000434a:	48 8b 45 f8          	mov    -0x8(%rbp),%rax
    1000434e:	48 89 c6             	mov    %rax,%rsi
    10004351:	bf 78 00 00 00       	mov    $0x78,%edi
    10004356:	b8 00 00 00 00       	mov    $0x0,%eax
    1000435b:	e8 5a 1d 00 00       	callq  100060ba <syscall>
    10004360:	c9                   	leaveq 
    10004361:	c3                   	retq   

0000000010004362 <sys_getcwd>:
    10004362:	55                   	push   %rbp
    10004363:	48 89 e5             	mov    %rsp,%rbp
    10004366:	48 83 ec 10          	sub    $0x10,%rsp
    1000436a:	48 89 7d f8          	mov    %rdi,-0x8(%rbp)
    1000436e:	48 89 75 f0          	mov    %rsi,-0x10(%rbp)
    10004372:	48 8b 55 f0          	mov    -0x10(%rbp),%rdx
    10004376:	48 8b 45 f8          	mov    -0x8(%rbp),%rax
    1000437a:	48 89 c6             	mov    %rax,%rsi
    1000437d:	bf 79 00 00 00       	mov    $0x79,%edi
    10004382:	b8 00 00 00 00       	mov    $0x0,%eax
    10004387:	e8 2e 1d 00 00       	callq  100060ba <syscall>
    1000438c:	c9                   	leaveq 
    1000438d:	c3                   	retq   

000000001000438e <sys_mkdir>:
    1000438e:	55                   	push   %rbp
    1000438f:	48 89 e5             	mov    %rsp,%rbp
    10004392:	48 83 ec 10          	sub    $0x10,%rsp
    10004396:	48 89 7d f8          	mov    %rdi,-0x8(%rbp)
    1000439a:	48 8b 45 f8          	mov    -0x8(%rbp),%rax
    1000439e:	48 89 c6             	mov    %rax,%rsi
    100043a1:	bf 7a 00 00 00       	mov    $0x7a,%edi
    100043a6:	b8 00 00 00 00       	mov    $0x0,%eax
    100043ab:	e8 0a 1d 00 00       	callq  100060ba <syscall>
    100043b0:	c9                   	leaveq 
    100043b1:	c3                   	retq   

00000000100043b2 <sys_link>:
    100043b2:	55                   	push   %rbp
    100043b3:	48 89 e5             	mov    %rsp,%rbp
    100043b6:	48 83 ec 10          	sub    $0x10,%rsp
    100043ba:	48 89 7d f8          	mov    %rdi,-0x8(%rbp)
    100043be:	48 89 75 f0          	mov    %rsi,-0x10(%rbp)
    100043c2:	48 8b 55 f0          	mov    -0x10(%rbp),%rdx
    100043c6:	48 8b 45 f8          	mov    -0x8(%rbp),%rax
    100043ca:	48 89 c6             	mov    %rax,%rsi
    100043cd:	bf 7b 00 00 00       	mov    $0x7b,%edi
    100043d2:	b8 00 00 00 00       	mov    $0x0,%eax
    100043d7:	e8 de 1c 00 00       	callq  100060ba <syscall>
    100043dc:	c9                   	leaveq 
    100043dd:	c3                   	retq   

00000000100043de <sys_rename>:
    100043de:	55                   	push   %rbp
    100043df:	48 89 e5             	mov    %rsp,%rbp
    100043e2:	48 83 ec 10          	sub    $0x10,%rsp
    100043e6:	48 89 7d f8          	mov    %rdi,-0x8(%rbp)
    100043ea:	48 89 75 f0          	mov    %rsi,-0x10(%rbp)
    100043ee:	48 8b 55 f0          	mov    -0x10(%rbp),%rdx
    100043f2:	48 8b 45 f8          	mov    -0x8(%rbp),%rax
    100043f6:	48 89 c6             	mov    %rax,%rsi
    100043f9:	bf 7c 00 00 00       	mov    $0x7c,%edi
    100043fe:	b8 00 00 00 00       	mov    $0x0,%eax
    10004403:	e8 b2 1c 00 00       	callq  100060ba <syscall>
    10004408:	c9                   	leaveq 
    10004409:	c3                   	retq   

000000001000440a <sys_unlink>:
    1000440a:	55                   	push   %rbp
    1000440b:	48 89 e5             	mov    %rsp,%rbp
    1000440e:	48 83 ec 10          	sub    $0x10,%rsp
    10004412:	48 89 7d f8          	mov    %rdi,-0x8(%rbp)
    10004416:	48 8b 45 f8          	mov    -0x8(%rbp),%rax
    1000441a:	48 89 c6             	mov    %rax,%rsi
    1000441d:	bf 7f 00 00 00       	mov    $0x7f,%edi
    10004422:	b8 00 00 00 00       	mov    $0x0,%eax
    10004427:	e8 8e 1c 00 00       	callq  100060ba <syscall>
    1000442c:	c9                   	leaveq 
    1000442d:	c3                   	retq   

000000001000442e <sys_getdirentry>:
    1000442e:	55                   	push   %rbp
    1000442f:	48 89 e5             	mov    %rsp,%rbp
    10004432:	48 83 ec 10          	sub    $0x10,%rsp
    10004436:	89 7d fc             	mov    %edi,-0x4(%rbp)
    10004439:	48 89 75 f0          	mov    %rsi,-0x10(%rbp)
    1000443d:	48 8b 55 f0          	mov    -0x10(%rbp),%rdx
    10004441:	8b 45 fc             	mov    -0x4(%rbp),%eax
    10004444:	89 c6                	mov    %eax,%esi
    10004446:	bf 80 00 00 00       	mov    $0x80,%edi
    1000444b:	b8 00 00 00 00       	mov    $0x0,%eax
    10004450:	e8 65 1c 00 00       	callq  100060ba <syscall>
    10004455:	c9                   	leaveq 
    10004456:	c3                   	retq   

0000000010004457 <sys_dup>:
    10004457:	55                   	push   %rbp
    10004458:	48 89 e5             	mov    %rsp,%rbp
    1000445b:	48 83 ec 10          	sub    $0x10,%rsp
    1000445f:	89 7d fc             	mov    %edi,-0x4(%rbp)
    10004462:	89 75 f8             	mov    %esi,-0x8(%rbp)
    10004465:	8b 55 f8             	mov    -0x8(%rbp),%edx
    10004468:	8b 45 fc             	mov    -0x4(%rbp),%eax
    1000446b:	89 c6                	mov    %eax,%esi
    1000446d:	bf 82 00 00 00       	mov    $0x82,%edi
    10004472:	b8 00 00 00 00       	mov    $0x0,%eax
    10004477:	e8 3e 1c 00 00       	callq  100060ba <syscall>
    1000447c:	c9                   	leaveq 
    1000447d:	c3                   	retq   

000000001000447e <sys_pipe>:
    1000447e:	55                   	push   %rbp
    1000447f:	48 89 e5             	mov    %rsp,%rbp
    10004482:	48 83 ec 10          	sub    $0x10,%rsp
    10004486:	48 89 7d f8          	mov    %rdi,-0x8(%rbp)
    1000448a:	48 8b 45 f8          	mov    -0x8(%rbp),%rax
    1000448e:	48 89 c6             	mov    %rax,%rsi
    10004491:	bf 8c 00 00 00       	mov    $0x8c,%edi
    10004496:	b8 00 00 00 00       	mov    $0x0,%eax
    1000449b:	e8 1a 1c 00 00       	callq  100060ba <syscall>
    100044a0:	c9                   	leaveq 
    100044a1:	c3                   	retq   

00000000100044a2 <sys_mkfifo>:
    100044a2:	55                   	push   %rbp
    100044a3:	48 89 e5             	mov    %rsp,%rbp
    100044a6:	48 83 ec 10          	sub    $0x10,%rsp
    100044aa:	48 89 7d f8          	mov    %rdi,-0x8(%rbp)
    100044ae:	89 75 f4             	mov    %esi,-0xc(%rbp)
    100044b1:	8b 55 f4             	mov    -0xc(%rbp),%edx
    100044b4:	48 8b 45 f8          	mov    -0x8(%rbp),%rax
    100044b8:	48 89 c6             	mov    %rax,%rsi
    100044bb:	bf 8d 00 00 00       	mov    $0x8d,%edi
    100044c0:	b8 00 00 00 00       	mov    $0x0,%eax
    100044c5:	e8 f0 1b 00 00       	callq  100060ba <syscall>
    100044ca:	c9                   	leaveq 
    100044cb:	c3                   	retq   

00000000100044cc <sys_ioctl>:
    100044cc:	55                   	push   %rbp
    100044cd:	48 89 e5             	mov    %rsp,%rbp
    100044d0:	48 83 ec 10          	sub    $0x10,%rsp
    100044d4:	89 7d fc             	mov    %edi,-0x4(%rbp)
    100044d7:	89 75 f8             	mov    %esi,-0x8(%rbp)
    100044da:	48 89 55 f0          	mov    %rdx,-0x10(%rbp)
    100044de:	48 8b 4d f0          	mov    -0x10(%rbp),%rcx
    100044e2:	8b 55 f8             	mov    -0x8(%rbp),%edx
    100044e5:	8b 45 fc             	mov    -0x4(%rbp),%eax
    100044e8:	89 c6                	mov    %eax,%esi
    100044ea:	bf 8e 00 00 00       	mov    $0x8e,%edi
    100044ef:	b8 00 00 00 00       	mov    $0x0,%eax
    100044f4:	e8 c1 1b 00 00       	callq  100060ba <syscall>
    100044f9:	c9                   	leaveq 
    100044fa:	c3                   	retq   

00000000100044fb <sys_init_module>:
    100044fb:	55                   	push   %rbp
    100044fc:	48 89 e5             	mov    %rsp,%rbp
    100044ff:	48 83 ec 20          	sub    $0x20,%rsp
    10004503:	48 89 7d f8          	mov    %rdi,-0x8(%rbp)
    10004507:	48 89 75 f0          	mov    %rsi,-0x10(%rbp)
    1000450b:	48 89 55 e8          	mov    %rdx,-0x18(%rbp)
    1000450f:	48 8b 4d e8          	mov    -0x18(%rbp),%rcx
    10004513:	48 8b 55 f0          	mov    -0x10(%rbp),%rdx
    10004517:	48 8b 45 f8          	mov    -0x8(%rbp),%rax
    1000451b:	48 89 c6             	mov    %rax,%rsi
    1000451e:	bf 96 00 00 00       	mov    $0x96,%edi
    10004523:	b8 00 00 00 00       	mov    $0x0,%eax
    10004528:	e8 8d 1b 00 00       	callq  100060ba <syscall>
    1000452d:	c9                   	leaveq 
    1000452e:	c3                   	retq   

000000001000452f <sys_cleanup_module>:
    1000452f:	55                   	push   %rbp
    10004530:	48 89 e5             	mov    %rsp,%rbp
    10004533:	48 83 ec 10          	sub    $0x10,%rsp
    10004537:	48 89 7d f8          	mov    %rdi,-0x8(%rbp)
    1000453b:	48 8b 45 f8          	mov    -0x8(%rbp),%rax
    1000453f:	48 89 c6             	mov    %rax,%rsi
    10004542:	bf 97 00 00 00       	mov    $0x97,%edi
    10004547:	b8 00 00 00 00       	mov    $0x0,%eax
    1000454c:	e8 69 1b 00 00       	callq  100060ba <syscall>
    10004551:	c9                   	leaveq 
    10004552:	c3                   	retq   

0000000010004553 <sys_list_module>:
    10004553:	55                   	push   %rbp
    10004554:	48 89 e5             	mov    %rsp,%rbp
    10004557:	bf 98 00 00 00       	mov    $0x98,%edi
    1000455c:	b8 00 00 00 00       	mov    $0x0,%eax
    10004561:	e8 54 1b 00 00       	callq  100060ba <syscall>
    10004566:	5d                   	pop    %rbp
    10004567:	c3                   	retq   

0000000010004568 <sys_mount>:
    10004568:	55                   	push   %rbp
    10004569:	48 89 e5             	mov    %rsp,%rbp
    1000456c:	48 83 ec 30          	sub    $0x30,%rsp
    10004570:	48 89 7d f8          	mov    %rdi,-0x8(%rbp)
    10004574:	48 89 75 f0          	mov    %rsi,-0x10(%rbp)
    10004578:	48 89 55 e8          	mov    %rdx,-0x18(%rbp)
    1000457c:	48 89 4d e0          	mov    %rcx,-0x20(%rbp)
    10004580:	4c 89 45 d8          	mov    %r8,-0x28(%rbp)
    10004584:	48 8b 7d d8          	mov    -0x28(%rbp),%rdi
    10004588:	48 8b 75 e0          	mov    -0x20(%rbp),%rsi
    1000458c:	48 8b 4d e8          	mov    -0x18(%rbp),%rcx
    10004590:	48 8b 55 f0          	mov    -0x10(%rbp),%rdx
    10004594:	48 8b 45 f8          	mov    -0x8(%rbp),%rax
    10004598:	49 89 f9             	mov    %rdi,%r9
    1000459b:	49 89 f0             	mov    %rsi,%r8
    1000459e:	48 89 c6             	mov    %rax,%rsi
    100045a1:	bf 99 00 00 00       	mov    $0x99,%edi
    100045a6:	b8 00 00 00 00       	mov    $0x0,%eax
    100045ab:	e8 0a 1b 00 00       	callq  100060ba <syscall>
    100045b0:	c9                   	leaveq 
    100045b1:	c3                   	retq   

00000000100045b2 <sys_umount>:
    100045b2:	55                   	push   %rbp
    100045b3:	48 89 e5             	mov    %rsp,%rbp
    100045b6:	48 83 ec 10          	sub    $0x10,%rsp
    100045ba:	48 89 7d f8          	mov    %rdi,-0x8(%rbp)
    100045be:	48 8b 45 f8          	mov    -0x8(%rbp),%rax
    100045c2:	48 89 c6             	mov    %rax,%rsi
    100045c5:	bf 9a 00 00 00       	mov    $0x9a,%edi
    100045ca:	b8 00 00 00 00       	mov    $0x0,%eax
    100045cf:	e8 e6 1a 00 00       	callq  100060ba <syscall>
    100045d4:	c9                   	leaveq 
    100045d5:	c3                   	retq   

00000000100045d6 <sys_rf212_send>:
    100045d6:	55                   	push   %rbp
    100045d7:	48 89 e5             	mov    %rsp,%rbp
    100045da:	48 83 ec 10          	sub    $0x10,%rsp
    100045de:	89 f8                	mov    %edi,%eax
    100045e0:	48 89 75 f0          	mov    %rsi,-0x10(%rbp)
    100045e4:	88 45 fc             	mov    %al,-0x4(%rbp)
    100045e7:	0f b6 45 fc          	movzbl -0x4(%rbp),%eax
    100045eb:	48 8b 55 f0          	mov    -0x10(%rbp),%rdx
    100045ef:	48 89 d1             	mov    %rdx,%rcx
    100045f2:	89 c2                	mov    %eax,%edx
    100045f4:	be 01 00 00 00       	mov    $0x1,%esi
    100045f9:	bf c7 00 00 00       	mov    $0xc7,%edi
    100045fe:	b8 00 00 00 00       	mov    $0x0,%eax
    10004603:	e8 b2 1a 00 00       	callq  100060ba <syscall>
    10004608:	c9                   	leaveq 
    10004609:	c3                   	retq   

000000001000460a <sys_rf212_reg>:
    1000460a:	55                   	push   %rbp
    1000460b:	48 89 e5             	mov    %rsp,%rbp
    1000460e:	48 83 ec 10          	sub    $0x10,%rsp
    10004612:	89 fa                	mov    %edi,%edx
    10004614:	89 f0                	mov    %esi,%eax
    10004616:	88 55 fc             	mov    %dl,-0x4(%rbp)
    10004619:	88 45 f8             	mov    %al,-0x8(%rbp)
    1000461c:	0f b6 55 f8          	movzbl -0x8(%rbp),%edx
    10004620:	0f b6 45 fc          	movzbl -0x4(%rbp),%eax
    10004624:	89 d1                	mov    %edx,%ecx
    10004626:	89 c2                	mov    %eax,%edx
    10004628:	be 02 00 00 00       	mov    $0x2,%esi
    1000462d:	bf c7 00 00 00       	mov    $0xc7,%edi
    10004632:	b8 00 00 00 00       	mov    $0x0,%eax
    10004637:	e8 7e 1a 00 00       	callq  100060ba <syscall>
    1000463c:	c9                   	leaveq 
    1000463d:	c3                   	retq   

000000001000463e <sys_rf212_reset>:
    1000463e:	55                   	push   %rbp
    1000463f:	48 89 e5             	mov    %rsp,%rbp
    10004642:	be 00 00 00 00       	mov    $0x0,%esi
    10004647:	bf c7 00 00 00       	mov    $0xc7,%edi
    1000464c:	b8 00 00 00 00       	mov    $0x0,%eax
    10004651:	e8 64 1a 00 00       	callq  100060ba <syscall>
    10004656:	5d                   	pop    %rbp
    10004657:	c3                   	retq   

0000000010004658 <sys_debug>:
    10004658:	55                   	push   %rbp
    10004659:	48 89 e5             	mov    %rsp,%rbp
    1000465c:	48 83 ec 10          	sub    $0x10,%rsp
    10004660:	89 7d fc             	mov    %edi,-0x4(%rbp)
    10004663:	89 75 f8             	mov    %esi,-0x8(%rbp)
    10004666:	89 55 f4             	mov    %edx,-0xc(%rbp)
    10004669:	8b 4d f4             	mov    -0xc(%rbp),%ecx
    1000466c:	8b 55 f8             	mov    -0x8(%rbp),%edx
    1000466f:	8b 45 fc             	mov    -0x4(%rbp),%eax
    10004672:	89 c6                	mov    %eax,%esi
    10004674:	bf 9b 00 00 00       	mov    $0x9b,%edi
    10004679:	b8 00 00 00 00       	mov    $0x0,%eax
    1000467e:	e8 37 1a 00 00       	callq  100060ba <syscall>
    10004683:	c9                   	leaveq 
    10004684:	c3                   	retq   

0000000010004685 <sys_linux_mmap>:
    10004685:	55                   	push   %rbp
    10004686:	48 89 e5             	mov    %rsp,%rbp
    10004689:	48 83 ec 30          	sub    $0x30,%rsp
    1000468d:	48 89 7d f8          	mov    %rdi,-0x8(%rbp)
    10004691:	48 89 75 f0          	mov    %rsi,-0x10(%rbp)
    10004695:	89 55 ec             	mov    %edx,-0x14(%rbp)
    10004698:	89 4d e8             	mov    %ecx,-0x18(%rbp)
    1000469b:	44 89 45 e4          	mov    %r8d,-0x1c(%rbp)
    1000469f:	4c 89 4d d8          	mov    %r9,-0x28(%rbp)
    100046a3:	8b 7d e4             	mov    -0x1c(%rbp),%edi
    100046a6:	8b 75 e8             	mov    -0x18(%rbp),%esi
    100046a9:	8b 4d ec             	mov    -0x14(%rbp),%ecx
    100046ac:	48 8b 55 f0          	mov    -0x10(%rbp),%rdx
    100046b0:	48 8b 45 f8          	mov    -0x8(%rbp),%rax
    100046b4:	48 83 ec 08          	sub    $0x8,%rsp
    100046b8:	ff 75 d8             	pushq  -0x28(%rbp)
    100046bb:	41 89 f9             	mov    %edi,%r9d
    100046be:	41 89 f0             	mov    %esi,%r8d
    100046c1:	48 89 c6             	mov    %rax,%rsi
    100046c4:	bf 8f 00 00 00       	mov    $0x8f,%edi
    100046c9:	b8 00 00 00 00       	mov    $0x0,%eax
    100046ce:	e8 e7 19 00 00       	callq  100060ba <syscall>
    100046d3:	48 83 c4 10          	add    $0x10,%rsp
    100046d7:	c9                   	leaveq 
    100046d8:	c3                   	retq   

00000000100046d9 <sys_linux_tkill>:
    100046d9:	55                   	push   %rbp
    100046da:	48 89 e5             	mov    %rsp,%rbp
    100046dd:	48 83 ec 10          	sub    $0x10,%rsp
    100046e1:	89 7d fc             	mov    %edi,-0x4(%rbp)
    100046e4:	89 75 f8             	mov    %esi,-0x8(%rbp)
    100046e7:	8b 55 f8             	mov    -0x8(%rbp),%edx
    100046ea:	8b 45 fc             	mov    -0x4(%rbp),%eax
    100046ed:	89 c6                	mov    %eax,%esi
    100046ef:	bf 90 00 00 00       	mov    $0x90,%edi
    100046f4:	b8 00 00 00 00       	mov    $0x0,%eax
    100046f9:	e8 bc 19 00 00       	callq  100060ba <syscall>
    100046fe:	c9                   	leaveq 
    100046ff:	c3                   	retq   

0000000010004700 <sys_linux_kill>:
    10004700:	55                   	push   %rbp
    10004701:	48 89 e5             	mov    %rsp,%rbp
    10004704:	48 83 ec 10          	sub    $0x10,%rsp
    10004708:	89 7d fc             	mov    %edi,-0x4(%rbp)
    1000470b:	89 75 f8             	mov    %esi,-0x8(%rbp)
    1000470e:	8b 55 f8             	mov    -0x8(%rbp),%edx
    10004711:	8b 45 fc             	mov    -0x4(%rbp),%eax
    10004714:	89 c6                	mov    %eax,%esi
    10004716:	bf 92 00 00 00       	mov    $0x92,%edi
    1000471b:	b8 00 00 00 00       	mov    $0x0,%eax
    10004720:	e8 95 19 00 00       	callq  100060ba <syscall>
    10004725:	c9                   	leaveq 
    10004726:	c3                   	retq   

0000000010004727 <sys_linux_sigprocmask>:
    10004727:	55                   	push   %rbp
    10004728:	48 89 e5             	mov    %rsp,%rbp
    1000472b:	48 83 ec 20          	sub    $0x20,%rsp
    1000472f:	89 7d fc             	mov    %edi,-0x4(%rbp)
    10004732:	48 89 75 f0          	mov    %rsi,-0x10(%rbp)
    10004736:	48 89 55 e8          	mov    %rdx,-0x18(%rbp)
    1000473a:	48 8b 4d e8          	mov    -0x18(%rbp),%rcx
    1000473e:	48 8b 55 f0          	mov    -0x10(%rbp),%rdx
    10004742:	8b 45 fc             	mov    -0x4(%rbp),%eax
    10004745:	89 c6                	mov    %eax,%esi
    10004747:	bf 93 00 00 00       	mov    $0x93,%edi
    1000474c:	b8 00 00 00 00       	mov    $0x0,%eax
    10004751:	e8 64 19 00 00       	callq  100060ba <syscall>
    10004756:	c9                   	leaveq 
    10004757:	c3                   	retq   

0000000010004758 <sys_linux_sigsuspend>:
    10004758:	55                   	push   %rbp
    10004759:	48 89 e5             	mov    %rsp,%rbp
    1000475c:	48 83 ec 10          	sub    $0x10,%rsp
    10004760:	89 7d fc             	mov    %edi,-0x4(%rbp)
    10004763:	8b 45 fc             	mov    -0x4(%rbp),%eax
    10004766:	89 c6                	mov    %eax,%esi
    10004768:	bf 94 00 00 00       	mov    $0x94,%edi
    1000476d:	b8 00 00 00 00       	mov    $0x0,%eax
    10004772:	e8 43 19 00 00       	callq  100060ba <syscall>
    10004777:	c9                   	leaveq 
    10004778:	c3                   	retq   

0000000010004779 <sys_linux_sigaction>:
    10004779:	55                   	push   %rbp
    1000477a:	48 89 e5             	mov    %rsp,%rbp
    1000477d:	48 83 ec 20          	sub    $0x20,%rsp
    10004781:	89 7d fc             	mov    %edi,-0x4(%rbp)
    10004784:	48 89 75 f0          	mov    %rsi,-0x10(%rbp)
    10004788:	48 89 55 e8          	mov    %rdx,-0x18(%rbp)
    1000478c:	48 8b 4d e8          	mov    -0x18(%rbp),%rcx
    10004790:	48 8b 55 f0          	mov    -0x10(%rbp),%rdx
    10004794:	8b 45 fc             	mov    -0x4(%rbp),%eax
    10004797:	89 c6                	mov    %eax,%esi
    10004799:	bf 91 00 00 00       	mov    $0x91,%edi
    1000479e:	b8 00 00 00 00       	mov    $0x0,%eax
    100047a3:	e8 12 19 00 00       	callq  100060ba <syscall>
    100047a8:	c9                   	leaveq 
    100047a9:	c3                   	retq   

00000000100047aa <sys_linux_getrlimit>:
    100047aa:	55                   	push   %rbp
    100047ab:	48 89 e5             	mov    %rsp,%rbp
    100047ae:	48 83 ec 10          	sub    $0x10,%rsp
    100047b2:	89 7d fc             	mov    %edi,-0x4(%rbp)
    100047b5:	48 89 75 f0          	mov    %rsi,-0x10(%rbp)
    100047b9:	48 8b 55 f0          	mov    -0x10(%rbp),%rdx
    100047bd:	8b 45 fc             	mov    -0x4(%rbp),%eax
    100047c0:	89 c6                	mov    %eax,%esi
    100047c2:	bf 9c 00 00 00       	mov    $0x9c,%edi
    100047c7:	b8 00 00 00 00       	mov    $0x0,%eax
    100047cc:	e8 e9 18 00 00       	callq  100060ba <syscall>
    100047d1:	c9                   	leaveq 
    100047d2:	c3                   	retq   

00000000100047d3 <sys_linux_setrlimit>:
    100047d3:	55                   	push   %rbp
    100047d4:	48 89 e5             	mov    %rsp,%rbp
    100047d7:	48 83 ec 10          	sub    $0x10,%rsp
    100047db:	89 7d fc             	mov    %edi,-0x4(%rbp)
    100047de:	48 89 75 f0          	mov    %rsi,-0x10(%rbp)
    100047e2:	48 8b 55 f0          	mov    -0x10(%rbp),%rdx
    100047e6:	8b 45 fc             	mov    -0x4(%rbp),%eax
    100047e9:	89 c6                	mov    %eax,%esi
    100047eb:	bf 9d 00 00 00       	mov    $0x9d,%edi
    100047f0:	b8 00 00 00 00       	mov    $0x0,%eax
    100047f5:	e8 c0 18 00 00       	callq  100060ba <syscall>
    100047fa:	c9                   	leaveq 
    100047fb:	c3                   	retq   

00000000100047fc <sysfile_linux_lstat>:
    100047fc:	55                   	push   %rbp
    100047fd:	48 89 e5             	mov    %rsp,%rbp
    10004800:	48 83 ec 10          	sub    $0x10,%rsp
    10004804:	48 89 7d f8          	mov    %rdi,-0x8(%rbp)
    10004808:	48 89 75 f0          	mov    %rsi,-0x10(%rbp)
    1000480c:	48 8b 55 f0          	mov    -0x10(%rbp),%rdx
    10004810:	48 8b 45 f8          	mov    -0x8(%rbp),%rax
    10004814:	48 89 c6             	mov    %rax,%rsi
    10004817:	bf 9e 00 00 00       	mov    $0x9e,%edi
    1000481c:	b8 00 00 00 00       	mov    $0x0,%eax
    10004821:	e8 94 18 00 00       	callq  100060ba <syscall>
    10004826:	c9                   	leaveq 
    10004827:	c3                   	retq   

0000000010004828 <sys_halt>:
    10004828:	55                   	push   %rbp
    10004829:	48 89 e5             	mov    %rsp,%rbp
    1000482c:	bf c9 00 00 00       	mov    $0xc9,%edi
    10004831:	b8 00 00 00 00       	mov    $0x0,%eax
    10004836:	e8 7f 18 00 00       	callq  100060ba <syscall>
    1000483b:	5d                   	pop    %rbp
    1000483c:	c3                   	retq   

000000001000483d <try_lock>:
    1000483d:	55                   	push   %rbp
    1000483e:	48 89 e5             	mov    %rsp,%rbp
    10004841:	48 89 7d d8          	mov    %rdi,-0x28(%rbp)
    10004845:	c7 45 fc 00 00 00 00 	movl   $0x0,-0x4(%rbp)
    1000484c:	48 8b 45 d8          	mov    -0x28(%rbp),%rax
    10004850:	48 89 45 f0          	mov    %rax,-0x10(%rbp)
    10004854:	48 8b 55 f0          	mov    -0x10(%rbp),%rdx
    10004858:	8b 45 fc             	mov    -0x4(%rbp),%eax
    1000485b:	0f ab 02             	bts    %eax,(%rdx)
    1000485e:	19 c0                	sbb    %eax,%eax
    10004860:	89 45 ec             	mov    %eax,-0x14(%rbp)
    10004863:	83 7d ec 00          	cmpl   $0x0,-0x14(%rbp)
    10004867:	0f 95 c0             	setne  %al
    1000486a:	0f b6 c0             	movzbl %al,%eax
    1000486d:	90                   	nop
    1000486e:	5d                   	pop    %rbp
    1000486f:	c3                   	retq   

0000000010004870 <lock>:
    10004870:	55                   	push   %rbp
    10004871:	48 89 e5             	mov    %rsp,%rbp
    10004874:	48 83 ec 20          	sub    $0x20,%rsp
    10004878:	48 89 7d e8          	mov    %rdi,-0x18(%rbp)
    1000487c:	48 8b 45 e8          	mov    -0x18(%rbp),%rax
    10004880:	48 89 c7             	mov    %rax,%rdi
    10004883:	e8 b5 ff ff ff       	callq  1000483d <try_lock>
    10004888:	85 c0                	test   %eax,%eax
    1000488a:	74 37                	je     100048c3 <lock+0x53>
    1000488c:	c7 45 fc 00 00 00 00 	movl   $0x0,-0x4(%rbp)
    10004893:	e8 ff 00 00 00       	callq  10004997 <yield>
    10004898:	83 45 fc 01          	addl   $0x1,-0x4(%rbp)
    1000489c:	83 7d fc 64          	cmpl   $0x64,-0x4(%rbp)
    100048a0:	75 11                	jne    100048b3 <lock+0x43>
    100048a2:	c7 45 fc 00 00 00 00 	movl   $0x0,-0x4(%rbp)
    100048a9:	bf 0a 00 00 00       	mov    $0xa,%edi
    100048ae:	e8 f0 00 00 00       	callq  100049a3 <sleep>
    100048b3:	48 8b 45 e8          	mov    -0x18(%rbp),%rax
    100048b7:	48 89 c7             	mov    %rax,%rdi
    100048ba:	e8 7e ff ff ff       	callq  1000483d <try_lock>
    100048bf:	85 c0                	test   %eax,%eax
    100048c1:	75 d0                	jne    10004893 <lock+0x23>
    100048c3:	90                   	nop
    100048c4:	c9                   	leaveq 
    100048c5:	c3                   	retq   

00000000100048c6 <unlock>:
    100048c6:	55                   	push   %rbp
    100048c7:	48 89 e5             	mov    %rsp,%rbp
    100048ca:	48 89 7d d8          	mov    %rdi,-0x28(%rbp)
    100048ce:	c7 45 fc 00 00 00 00 	movl   $0x0,-0x4(%rbp)
    100048d5:	48 8b 45 d8          	mov    -0x28(%rbp),%rax
    100048d9:	48 89 45 f0          	mov    %rax,-0x10(%rbp)
    100048dd:	48 8b 55 f0          	mov    -0x10(%rbp),%rdx
    100048e1:	8b 45 fc             	mov    -0x4(%rbp),%eax
    100048e4:	0f b3 02             	btr    %eax,(%rdx)
    100048e7:	19 c0                	sbb    %eax,%eax
    100048e9:	89 45 ec             	mov    %eax,-0x14(%rbp)
    100048ec:	83 7d ec 00          	cmpl   $0x0,-0x14(%rbp)
    100048f0:	90                   	nop
    100048f1:	5d                   	pop    %rbp
    100048f2:	c3                   	retq   

00000000100048f3 <lock_fork>:
    100048f3:	55                   	push   %rbp
    100048f4:	48 89 e5             	mov    %rsp,%rbp
    100048f7:	bf dc 00 01 10       	mov    $0x100100dc,%edi
    100048fc:	e8 6f ff ff ff       	callq  10004870 <lock>
    10004901:	90                   	nop
    10004902:	5d                   	pop    %rbp
    10004903:	c3                   	retq   

0000000010004904 <unlock_fork>:
    10004904:	55                   	push   %rbp
    10004905:	48 89 e5             	mov    %rsp,%rbp
    10004908:	bf dc 00 01 10       	mov    $0x100100dc,%edi
    1000490d:	e8 b4 ff ff ff       	callq  100048c6 <unlock>
    10004912:	90                   	nop
    10004913:	5d                   	pop    %rbp
    10004914:	c3                   	retq   

0000000010004915 <exit>:
    10004915:	55                   	push   %rbp
    10004916:	48 89 e5             	mov    %rsp,%rbp
    10004919:	48 83 ec 10          	sub    $0x10,%rsp
    1000491d:	89 7d fc             	mov    %edi,-0x4(%rbp)
    10004920:	8b 45 fc             	mov    -0x4(%rbp),%eax
    10004923:	89 c7                	mov    %eax,%edi
    10004925:	e8 da f4 ff ff       	callq  10003e04 <sys_exit>
    1000492a:	bf a5 6f 00 10       	mov    $0x10006fa5,%edi
    1000492f:	b8 00 00 00 00       	mov    $0x0,%eax
    10004934:	e8 9f f2 ff ff       	callq  10003bd8 <cprintf>
    10004939:	eb fe                	jmp    10004939 <exit+0x24>

000000001000493b <fork>:
    1000493b:	55                   	push   %rbp
    1000493c:	48 89 e5             	mov    %rsp,%rbp
    1000493f:	48 83 ec 10          	sub    $0x10,%rsp
    10004943:	e8 ab ff ff ff       	callq  100048f3 <lock_fork>
    10004948:	e8 d8 f4 ff ff       	callq  10003e25 <sys_fork>
    1000494d:	89 45 fc             	mov    %eax,-0x4(%rbp)
    10004950:	e8 af ff ff ff       	callq  10004904 <unlock_fork>
    10004955:	8b 45 fc             	mov    -0x4(%rbp),%eax
    10004958:	c9                   	leaveq 
    10004959:	c3                   	retq   

000000001000495a <wait>:
    1000495a:	55                   	push   %rbp
    1000495b:	48 89 e5             	mov    %rsp,%rbp
    1000495e:	be 00 00 00 00       	mov    $0x0,%esi
    10004963:	bf 00 00 00 00       	mov    $0x0,%edi
    10004968:	e8 cd f4 ff ff       	callq  10003e3a <sys_wait>
    1000496d:	5d                   	pop    %rbp
    1000496e:	c3                   	retq   

000000001000496f <waitpid>:
    1000496f:	55                   	push   %rbp
    10004970:	48 89 e5             	mov    %rsp,%rbp
    10004973:	48 83 ec 10          	sub    $0x10,%rsp
    10004977:	89 7d fc             	mov    %edi,-0x4(%rbp)
    1000497a:	48 89 75 f0          	mov    %rsi,-0x10(%rbp)
    1000497e:	89 55 f8             	mov    %edx,-0x8(%rbp)
    10004981:	8b 55 f8             	mov    -0x8(%rbp),%edx
    10004984:	48 8b 4d f0          	mov    -0x10(%rbp),%rcx
    10004988:	8b 45 fc             	mov    -0x4(%rbp),%eax
    1000498b:	48 89 ce             	mov    %rcx,%rsi
    1000498e:	89 c7                	mov    %eax,%edi
    10004990:	e8 ce f4 ff ff       	callq  10003e63 <sys_linux_waitpid>
    10004995:	c9                   	leaveq 
    10004996:	c3                   	retq   

0000000010004997 <yield>:
    10004997:	55                   	push   %rbp
    10004998:	48 89 e5             	mov    %rsp,%rbp
    1000499b:	e8 26 f5 ff ff       	callq  10003ec6 <sys_yield>
    100049a0:	90                   	nop
    100049a1:	5d                   	pop    %rbp
    100049a2:	c3                   	retq   

00000000100049a3 <sleep>:
    100049a3:	55                   	push   %rbp
    100049a4:	48 89 e5             	mov    %rsp,%rbp
    100049a7:	48 83 ec 10          	sub    $0x10,%rsp
    100049ab:	89 7d fc             	mov    %edi,-0x4(%rbp)
    100049ae:	8b 45 fc             	mov    -0x4(%rbp),%eax
    100049b1:	89 c7                	mov    %eax,%edi
    100049b3:	e8 23 f5 ff ff       	callq  10003edb <sys_sleep>
    100049b8:	c9                   	leaveq 
    100049b9:	c3                   	retq   

00000000100049ba <kill>:
    100049ba:	55                   	push   %rbp
    100049bb:	48 89 e5             	mov    %rsp,%rbp
    100049be:	48 83 ec 10          	sub    $0x10,%rsp
    100049c2:	89 7d fc             	mov    %edi,-0x4(%rbp)
    100049c5:	8b 45 fc             	mov    -0x4(%rbp),%eax
    100049c8:	89 c7                	mov    %eax,%edi
    100049ca:	e8 2d f5 ff ff       	callq  10003efc <sys_kill>
    100049cf:	c9                   	leaveq 
    100049d0:	c3                   	retq   

00000000100049d1 <gettime_msec>:
    100049d1:	55                   	push   %rbp
    100049d2:	48 89 e5             	mov    %rsp,%rbp
    100049d5:	e8 43 f5 ff ff       	callq  10003f1d <sys_gettime>
    100049da:	5d                   	pop    %rbp
    100049db:	c3                   	retq   

00000000100049dc <getpid>:
    100049dc:	55                   	push   %rbp
    100049dd:	48 89 e5             	mov    %rsp,%rbp
    100049e0:	e8 4d f5 ff ff       	callq  10003f32 <sys_getpid>
    100049e5:	5d                   	pop    %rbp
    100049e6:	c3                   	retq   

00000000100049e7 <print_pgdir>:
    100049e7:	55                   	push   %rbp
    100049e8:	48 89 e5             	mov    %rsp,%rbp
    100049eb:	e8 2c f6 ff ff       	callq  1000401c <sys_pgdir>
    100049f0:	90                   	nop
    100049f1:	5d                   	pop    %rbp
    100049f2:	c3                   	retq   

00000000100049f3 <mmap>:
    100049f3:	55                   	push   %rbp
    100049f4:	48 89 e5             	mov    %rsp,%rbp
    100049f7:	48 83 ec 20          	sub    $0x20,%rsp
    100049fb:	48 89 7d f8          	mov    %rdi,-0x8(%rbp)
    100049ff:	48 89 75 f0          	mov    %rsi,-0x10(%rbp)
    10004a03:	89 55 ec             	mov    %edx,-0x14(%rbp)
    10004a06:	8b 55 ec             	mov    -0x14(%rbp),%edx
    10004a09:	48 8b 4d f0          	mov    -0x10(%rbp),%rcx
    10004a0d:	48 8b 45 f8          	mov    -0x8(%rbp),%rax
    10004a11:	48 89 ce             	mov    %rcx,%rsi
    10004a14:	48 89 c7             	mov    %rax,%rdi
    10004a17:	e8 4f f5 ff ff       	callq  10003f6b <sys_mmap>
    10004a1c:	c9                   	leaveq 
    10004a1d:	c3                   	retq   

0000000010004a1e <munmap>:
    10004a1e:	55                   	push   %rbp
    10004a1f:	48 89 e5             	mov    %rsp,%rbp
    10004a22:	48 83 ec 10          	sub    $0x10,%rsp
    10004a26:	48 89 7d f8          	mov    %rdi,-0x8(%rbp)
    10004a2a:	48 89 75 f0          	mov    %rsi,-0x10(%rbp)
    10004a2e:	48 8b 55 f0          	mov    -0x10(%rbp),%rdx
    10004a32:	48 8b 45 f8          	mov    -0x8(%rbp),%rax
    10004a36:	48 89 d6             	mov    %rdx,%rsi
    10004a39:	48 89 c7             	mov    %rax,%rdi
    10004a3c:	e8 5c f5 ff ff       	callq  10003f9d <sys_munmap>
    10004a41:	c9                   	leaveq 
    10004a42:	c3                   	retq   

0000000010004a43 <shmem>:
    10004a43:	55                   	push   %rbp
    10004a44:	48 89 e5             	mov    %rsp,%rbp
    10004a47:	48 83 ec 20          	sub    $0x20,%rsp
    10004a4b:	48 89 7d f8          	mov    %rdi,-0x8(%rbp)
    10004a4f:	48 89 75 f0          	mov    %rsi,-0x10(%rbp)
    10004a53:	89 55 ec             	mov    %edx,-0x14(%rbp)
    10004a56:	8b 55 ec             	mov    -0x14(%rbp),%edx
    10004a59:	48 8b 4d f0          	mov    -0x10(%rbp),%rcx
    10004a5d:	48 8b 45 f8          	mov    -0x8(%rbp),%rax
    10004a61:	48 89 ce             	mov    %rcx,%rsi
    10004a64:	48 89 c7             	mov    %rax,%rdi
    10004a67:	e8 5d f5 ff ff       	callq  10003fc9 <sys_shmem>
    10004a6c:	c9                   	leaveq 
    10004a6d:	c3                   	retq   

0000000010004a6e <sem_init>:
    10004a6e:	55                   	push   %rbp
    10004a6f:	48 89 e5             	mov    %rsp,%rbp
    10004a72:	48 83 ec 10          	sub    $0x10,%rsp
    10004a76:	89 7d fc             	mov    %edi,-0x4(%rbp)
    10004a79:	8b 45 fc             	mov    -0x4(%rbp),%eax
    10004a7c:	89 c7                	mov    %eax,%edi
    10004a7e:	e8 ae f5 ff ff       	callq  10004031 <sys_sem_init>
    10004a83:	c9                   	leaveq 
    10004a84:	c3                   	retq   

0000000010004a85 <sem_post>:
    10004a85:	55                   	push   %rbp
    10004a86:	48 89 e5             	mov    %rsp,%rbp
    10004a89:	48 83 ec 10          	sub    $0x10,%rsp
    10004a8d:	48 89 7d f8          	mov    %rdi,-0x8(%rbp)
    10004a91:	48 8b 45 f8          	mov    -0x8(%rbp),%rax
    10004a95:	48 89 c7             	mov    %rax,%rdi
    10004a98:	e8 b5 f5 ff ff       	callq  10004052 <sys_sem_post>
    10004a9d:	c9                   	leaveq 
    10004a9e:	c3                   	retq   

0000000010004a9f <sem_wait>:
    10004a9f:	55                   	push   %rbp
    10004aa0:	48 89 e5             	mov    %rsp,%rbp
    10004aa3:	48 83 ec 10          	sub    $0x10,%rsp
    10004aa7:	48 89 7d f8          	mov    %rdi,-0x8(%rbp)
    10004aab:	48 8b 45 f8          	mov    -0x8(%rbp),%rax
    10004aaf:	be 00 00 00 00       	mov    $0x0,%esi
    10004ab4:	48 89 c7             	mov    %rax,%rdi
    10004ab7:	e8 ba f5 ff ff       	callq  10004076 <sys_sem_wait>
    10004abc:	c9                   	leaveq 
    10004abd:	c3                   	retq   

0000000010004abe <sem_wait_timeout>:
    10004abe:	55                   	push   %rbp
    10004abf:	48 89 e5             	mov    %rsp,%rbp
    10004ac2:	48 83 ec 10          	sub    $0x10,%rsp
    10004ac6:	48 89 7d f8          	mov    %rdi,-0x8(%rbp)
    10004aca:	89 75 f4             	mov    %esi,-0xc(%rbp)
    10004acd:	8b 55 f4             	mov    -0xc(%rbp),%edx
    10004ad0:	48 8b 45 f8          	mov    -0x8(%rbp),%rax
    10004ad4:	89 d6                	mov    %edx,%esi
    10004ad6:	48 89 c7             	mov    %rax,%rdi
    10004ad9:	e8 98 f5 ff ff       	callq  10004076 <sys_sem_wait>
    10004ade:	c9                   	leaveq 
    10004adf:	c3                   	retq   

0000000010004ae0 <sem_free>:
    10004ae0:	55                   	push   %rbp
    10004ae1:	48 89 e5             	mov    %rsp,%rbp
    10004ae4:	48 83 ec 10          	sub    $0x10,%rsp
    10004ae8:	48 89 7d f8          	mov    %rdi,-0x8(%rbp)
    10004aec:	48 8b 45 f8          	mov    -0x8(%rbp),%rax
    10004af0:	48 89 c7             	mov    %rax,%rdi
    10004af3:	e8 a8 f5 ff ff       	callq  100040a0 <sys_sem_free>
    10004af8:	c9                   	leaveq 
    10004af9:	c3                   	retq   

0000000010004afa <sem_get_value>:
    10004afa:	55                   	push   %rbp
    10004afb:	48 89 e5             	mov    %rsp,%rbp
    10004afe:	48 83 ec 10          	sub    $0x10,%rsp
    10004b02:	48 89 7d f8          	mov    %rdi,-0x8(%rbp)
    10004b06:	48 89 75 f0          	mov    %rsi,-0x10(%rbp)
    10004b0a:	48 8b 55 f0          	mov    -0x10(%rbp),%rdx
    10004b0e:	48 8b 45 f8          	mov    -0x8(%rbp),%rax
    10004b12:	48 89 d6             	mov    %rdx,%rsi
    10004b15:	48 89 c7             	mov    %rax,%rdi
    10004b18:	e8 a7 f5 ff ff       	callq  100040c4 <sys_sem_get_value>
    10004b1d:	c9                   	leaveq 
    10004b1e:	c3                   	retq   

0000000010004b1f <send_event>:
    10004b1f:	55                   	push   %rbp
    10004b20:	48 89 e5             	mov    %rsp,%rbp
    10004b23:	48 83 ec 10          	sub    $0x10,%rsp
    10004b27:	89 7d fc             	mov    %edi,-0x4(%rbp)
    10004b2a:	89 75 f8             	mov    %esi,-0x8(%rbp)
    10004b2d:	8b 4d f8             	mov    -0x8(%rbp),%ecx
    10004b30:	8b 45 fc             	mov    -0x4(%rbp),%eax
    10004b33:	ba 00 00 00 00       	mov    $0x0,%edx
    10004b38:	89 ce                	mov    %ecx,%esi
    10004b3a:	89 c7                	mov    %eax,%edi
    10004b3c:	e8 af f5 ff ff       	callq  100040f0 <sys_send_event>
    10004b41:	c9                   	leaveq 
    10004b42:	c3                   	retq   

0000000010004b43 <send_event_timeout>:
    10004b43:	55                   	push   %rbp
    10004b44:	48 89 e5             	mov    %rsp,%rbp
    10004b47:	48 83 ec 10          	sub    $0x10,%rsp
    10004b4b:	89 7d fc             	mov    %edi,-0x4(%rbp)
    10004b4e:	89 75 f8             	mov    %esi,-0x8(%rbp)
    10004b51:	89 55 f4             	mov    %edx,-0xc(%rbp)
    10004b54:	8b 55 f4             	mov    -0xc(%rbp),%edx
    10004b57:	8b 4d f8             	mov    -0x8(%rbp),%ecx
    10004b5a:	8b 45 fc             	mov    -0x4(%rbp),%eax
    10004b5d:	89 ce                	mov    %ecx,%esi
    10004b5f:	89 c7                	mov    %eax,%edi
    10004b61:	e8 8a f5 ff ff       	callq  100040f0 <sys_send_event>
    10004b66:	c9                   	leaveq 
    10004b67:	c3                   	retq   

0000000010004b68 <recv_event>:
    10004b68:	55                   	push   %rbp
    10004b69:	48 89 e5             	mov    %rsp,%rbp
    10004b6c:	48 83 ec 10          	sub    $0x10,%rsp
    10004b70:	48 89 7d f8          	mov    %rdi,-0x8(%rbp)
    10004b74:	48 89 75 f0          	mov    %rsi,-0x10(%rbp)
    10004b78:	48 8b 4d f0          	mov    -0x10(%rbp),%rcx
    10004b7c:	48 8b 45 f8          	mov    -0x8(%rbp),%rax
    10004b80:	ba 00 00 00 00       	mov    $0x0,%edx
    10004b85:	48 89 ce             	mov    %rcx,%rsi
    10004b88:	48 89 c7             	mov    %rax,%rdi
    10004b8b:	e8 8d f5 ff ff       	callq  1000411d <sys_recv_event>
    10004b90:	c9                   	leaveq 
    10004b91:	c3                   	retq   

0000000010004b92 <recv_event_timeout>:
    10004b92:	55                   	push   %rbp
    10004b93:	48 89 e5             	mov    %rsp,%rbp
    10004b96:	48 83 ec 20          	sub    $0x20,%rsp
    10004b9a:	48 89 7d f8          	mov    %rdi,-0x8(%rbp)
    10004b9e:	48 89 75 f0          	mov    %rsi,-0x10(%rbp)
    10004ba2:	89 55 ec             	mov    %edx,-0x14(%rbp)
    10004ba5:	8b 55 ec             	mov    -0x14(%rbp),%edx
    10004ba8:	48 8b 4d f0          	mov    -0x10(%rbp),%rcx
    10004bac:	48 8b 45 f8          	mov    -0x8(%rbp),%rax
    10004bb0:	48 89 ce             	mov    %rcx,%rsi
    10004bb3:	48 89 c7             	mov    %rax,%rdi
    10004bb6:	e8 62 f5 ff ff       	callq  1000411d <sys_recv_event>
    10004bbb:	c9                   	leaveq 
    10004bbc:	c3                   	retq   

0000000010004bbd <mbox_init>:
    10004bbd:	55                   	push   %rbp
    10004bbe:	48 89 e5             	mov    %rsp,%rbp
    10004bc1:	48 83 ec 10          	sub    $0x10,%rsp
    10004bc5:	89 7d fc             	mov    %edi,-0x4(%rbp)
    10004bc8:	8b 45 fc             	mov    -0x4(%rbp),%eax
    10004bcb:	89 c7                	mov    %eax,%edi
    10004bcd:	e8 7d f5 ff ff       	callq  1000414f <sys_mbox_init>
    10004bd2:	c9                   	leaveq 
    10004bd3:	c3                   	retq   

0000000010004bd4 <mbox_send>:
    10004bd4:	55                   	push   %rbp
    10004bd5:	48 89 e5             	mov    %rsp,%rbp
    10004bd8:	48 83 ec 10          	sub    $0x10,%rsp
    10004bdc:	89 7d fc             	mov    %edi,-0x4(%rbp)
    10004bdf:	48 89 75 f0          	mov    %rsi,-0x10(%rbp)
    10004be3:	48 8b 4d f0          	mov    -0x10(%rbp),%rcx
    10004be7:	8b 45 fc             	mov    -0x4(%rbp),%eax
    10004bea:	ba 00 00 00 00       	mov    $0x0,%edx
    10004bef:	48 89 ce             	mov    %rcx,%rsi
    10004bf2:	89 c7                	mov    %eax,%edi
    10004bf4:	e8 77 f5 ff ff       	callq  10004170 <sys_mbox_send>
    10004bf9:	c9                   	leaveq 
    10004bfa:	c3                   	retq   

0000000010004bfb <mbox_send_timeout>:
    10004bfb:	55                   	push   %rbp
    10004bfc:	48 89 e5             	mov    %rsp,%rbp
    10004bff:	48 83 ec 10          	sub    $0x10,%rsp
    10004c03:	89 7d fc             	mov    %edi,-0x4(%rbp)
    10004c06:	48 89 75 f0          	mov    %rsi,-0x10(%rbp)
    10004c0a:	89 55 f8             	mov    %edx,-0x8(%rbp)
    10004c0d:	8b 55 f8             	mov    -0x8(%rbp),%edx
    10004c10:	48 8b 4d f0          	mov    -0x10(%rbp),%rcx
    10004c14:	8b 45 fc             	mov    -0x4(%rbp),%eax
    10004c17:	48 89 ce             	mov    %rcx,%rsi
    10004c1a:	89 c7                	mov    %eax,%edi
    10004c1c:	e8 4f f5 ff ff       	callq  10004170 <sys_mbox_send>
    10004c21:	c9                   	leaveq 
    10004c22:	c3                   	retq   

0000000010004c23 <mbox_recv>:
    10004c23:	55                   	push   %rbp
    10004c24:	48 89 e5             	mov    %rsp,%rbp
    10004c27:	48 83 ec 10          	sub    $0x10,%rsp
    10004c2b:	89 7d fc             	mov    %edi,-0x4(%rbp)
    10004c2e:	48 89 75 f0          	mov    %rsi,-0x10(%rbp)
    10004c32:	48 8b 4d f0          	mov    -0x10(%rbp),%rcx
    10004c36:	8b 45 fc             	mov    -0x4(%rbp),%eax
    10004c39:	ba 00 00 00 00       	mov    $0x0,%edx
    10004c3e:	48 89 ce             	mov    %rcx,%rsi
    10004c41:	89 c7                	mov    %eax,%edi
    10004c43:	e8 57 f5 ff ff       	callq  1000419f <sys_mbox_recv>
    10004c48:	c9                   	leaveq 
    10004c49:	c3                   	retq   

0000000010004c4a <mbox_recv_timeout>:
    10004c4a:	55                   	push   %rbp
    10004c4b:	48 89 e5             	mov    %rsp,%rbp
    10004c4e:	48 83 ec 10          	sub    $0x10,%rsp
    10004c52:	89 7d fc             	mov    %edi,-0x4(%rbp)
    10004c55:	48 89 75 f0          	mov    %rsi,-0x10(%rbp)
    10004c59:	89 55 f8             	mov    %edx,-0x8(%rbp)
    10004c5c:	8b 55 f8             	mov    -0x8(%rbp),%edx
    10004c5f:	48 8b 4d f0          	mov    -0x10(%rbp),%rcx
    10004c63:	8b 45 fc             	mov    -0x4(%rbp),%eax
    10004c66:	48 89 ce             	mov    %rcx,%rsi
    10004c69:	89 c7                	mov    %eax,%edi
    10004c6b:	e8 2f f5 ff ff       	callq  1000419f <sys_mbox_recv>
    10004c70:	c9                   	leaveq 
    10004c71:	c3                   	retq   

0000000010004c72 <mbox_free>:
    10004c72:	55                   	push   %rbp
    10004c73:	48 89 e5             	mov    %rsp,%rbp
    10004c76:	48 83 ec 10          	sub    $0x10,%rsp
    10004c7a:	89 7d fc             	mov    %edi,-0x4(%rbp)
    10004c7d:	8b 45 fc             	mov    -0x4(%rbp),%eax
    10004c80:	89 c7                	mov    %eax,%edi
    10004c82:	e8 47 f5 ff ff       	callq  100041ce <sys_mbox_free>
    10004c87:	c9                   	leaveq 
    10004c88:	c3                   	retq   

0000000010004c89 <mbox_info>:
    10004c89:	55                   	push   %rbp
    10004c8a:	48 89 e5             	mov    %rsp,%rbp
    10004c8d:	48 83 ec 10          	sub    $0x10,%rsp
    10004c91:	89 7d fc             	mov    %edi,-0x4(%rbp)
    10004c94:	48 89 75 f0          	mov    %rsi,-0x10(%rbp)
    10004c98:	48 8b 55 f0          	mov    -0x10(%rbp),%rdx
    10004c9c:	8b 45 fc             	mov    -0x4(%rbp),%eax
    10004c9f:	48 89 d6             	mov    %rdx,%rsi
    10004ca2:	89 c7                	mov    %eax,%edi
    10004ca4:	e8 46 f5 ff ff       	callq  100041ef <sys_mbox_info>
    10004ca9:	c9                   	leaveq 
    10004caa:	c3                   	retq   

0000000010004cab <__exec>:
    10004cab:	55                   	push   %rbp
    10004cac:	48 89 e5             	mov    %rsp,%rbp
    10004caf:	48 83 ec 30          	sub    $0x30,%rsp
    10004cb3:	48 89 7d e8          	mov    %rdi,-0x18(%rbp)
    10004cb7:	48 89 75 e0          	mov    %rsi,-0x20(%rbp)
    10004cbb:	48 89 55 d8          	mov    %rdx,-0x28(%rbp)
    10004cbf:	c7 45 fc 00 00 00 00 	movl   $0x0,-0x4(%rbp)
    10004cc6:	eb 04                	jmp    10004ccc <__exec+0x21>
    10004cc8:	83 45 fc 01          	addl   $0x1,-0x4(%rbp)
    10004ccc:	8b 45 fc             	mov    -0x4(%rbp),%eax
    10004ccf:	48 98                	cltq   
    10004cd1:	48 8d 14 c5 00 00 00 	lea    0x0(,%rax,8),%rdx
    10004cd8:	00 
    10004cd9:	48 8b 45 e0          	mov    -0x20(%rbp),%rax
    10004cdd:	48 01 d0             	add    %rdx,%rax
    10004ce0:	48 8b 00             	mov    (%rax),%rax
    10004ce3:	48 85 c0             	test   %rax,%rax
    10004ce6:	75 e0                	jne    10004cc8 <__exec+0x1d>
    10004ce8:	48 8b 45 e0          	mov    -0x20(%rbp),%rax
    10004cec:	48 8b 00             	mov    (%rax),%rax
    10004cef:	48 8b 55 d8          	mov    -0x28(%rbp),%rdx
    10004cf3:	48 8b 4d e0          	mov    -0x20(%rbp),%rcx
    10004cf7:	48 89 ce             	mov    %rcx,%rsi
    10004cfa:	48 89 c7             	mov    %rax,%rdi
    10004cfd:	e8 90 f1 ff ff       	callq  10003e92 <sys_exec>
    10004d02:	c9                   	leaveq 
    10004d03:	c3                   	retq   

0000000010004d04 <clone>:
    10004d04:	55                   	push   %rbp
    10004d05:	48 89 e5             	mov    %rsp,%rbp
    10004d08:	48 83 ec 30          	sub    $0x30,%rsp
    10004d0c:	89 7d ec             	mov    %edi,-0x14(%rbp)
    10004d0f:	48 89 75 e0          	mov    %rsi,-0x20(%rbp)
    10004d13:	48 89 55 d8          	mov    %rdx,-0x28(%rbp)
    10004d17:	48 89 4d d0          	mov    %rcx,-0x30(%rbp)
    10004d1b:	e8 d3 fb ff ff       	callq  100048f3 <lock_fork>
    10004d20:	48 8b 4d d0          	mov    -0x30(%rbp),%rcx
    10004d24:	48 8b 55 d8          	mov    -0x28(%rbp),%rdx
    10004d28:	48 8b 75 e0          	mov    -0x20(%rbp),%rsi
    10004d2c:	8b 45 ec             	mov    -0x14(%rbp),%eax
    10004d2f:	89 c7                	mov    %eax,%edi
    10004d31:	e8 5c 13 00 00       	callq  10006092 <__clone>
    10004d36:	89 45 fc             	mov    %eax,-0x4(%rbp)
    10004d39:	e8 c6 fb ff ff       	callq  10004904 <unlock_fork>
    10004d3e:	8b 45 fc             	mov    -0x4(%rbp),%eax
    10004d41:	c9                   	leaveq 
    10004d42:	c3                   	retq   

0000000010004d43 <raise>:
    10004d43:	55                   	push   %rbp
    10004d44:	48 89 e5             	mov    %rsp,%rbp
    10004d47:	bf ff ff ff ff       	mov    $0xffffffff,%edi
    10004d4c:	e8 c4 fb ff ff       	callq  10004915 <exit>

0000000010004d51 <halt>:
    10004d51:	55                   	push   %rbp
    10004d52:	48 89 e5             	mov    %rsp,%rbp
    10004d55:	b8 00 00 00 00       	mov    $0x0,%eax
    10004d5a:	e8 c9 fa ff ff       	callq  10004828 <sys_halt>
    10004d5f:	90                   	nop
    10004d60:	5d                   	pop    %rbp
    10004d61:	c3                   	retq   

0000000010004d62 <initfd>:
    10004d62:	55                   	push   %rbp
    10004d63:	48 89 e5             	mov    %rsp,%rbp
    10004d66:	48 83 ec 50          	sub    $0x50,%rsp
    10004d6a:	89 7d bc             	mov    %edi,-0x44(%rbp)
    10004d6d:	48 89 75 b0          	mov    %rsi,-0x50(%rbp)
    10004d71:	89 55 b8             	mov    %edx,-0x48(%rbp)
    10004d74:	48 8d 45 c0          	lea    -0x40(%rbp),%rax
    10004d78:	48 89 45 f0          	mov    %rax,-0x10(%rbp)
    10004d7c:	48 8b 55 f0          	mov    -0x10(%rbp),%rdx
    10004d80:	8b 45 bc             	mov    -0x44(%rbp),%eax
    10004d83:	48 89 d6             	mov    %rdx,%rsi
    10004d86:	89 c7                	mov    %eax,%edi
    10004d88:	e8 43 e6 ff ff       	callq  100033d0 <fstat>
    10004d8d:	89 45 fc             	mov    %eax,-0x4(%rbp)
    10004d90:	83 7d fc 00          	cmpl   $0x0,-0x4(%rbp)
    10004d94:	74 4d                	je     10004de3 <initfd+0x81>
    10004d96:	8b 55 b8             	mov    -0x48(%rbp),%edx
    10004d99:	48 8b 45 b0          	mov    -0x50(%rbp),%rax
    10004d9d:	89 d6                	mov    %edx,%esi
    10004d9f:	48 89 c7             	mov    %rax,%rdi
    10004da2:	e8 74 e5 ff ff       	callq  1000331b <open>
    10004da7:	89 45 ec             	mov    %eax,-0x14(%rbp)
    10004daa:	83 7d ec 00          	cmpl   $0x0,-0x14(%rbp)
    10004dae:	78 08                	js     10004db8 <initfd+0x56>
    10004db0:	8b 45 ec             	mov    -0x14(%rbp),%eax
    10004db3:	3b 45 bc             	cmp    -0x44(%rbp),%eax
    10004db6:	75 05                	jne    10004dbd <initfd+0x5b>
    10004db8:	8b 45 ec             	mov    -0x14(%rbp),%eax
    10004dbb:	eb 29                	jmp    10004de6 <initfd+0x84>
    10004dbd:	8b 45 bc             	mov    -0x44(%rbp),%eax
    10004dc0:	89 c7                	mov    %eax,%edi
    10004dc2:	e8 76 e5 ff ff       	callq  1000333d <close>
    10004dc7:	8b 55 bc             	mov    -0x44(%rbp),%edx
    10004dca:	8b 45 ec             	mov    -0x14(%rbp),%eax
    10004dcd:	89 d6                	mov    %edx,%esi
    10004dcf:	89 c7                	mov    %eax,%edi
    10004dd1:	e8 4f e6 ff ff       	callq  10003425 <dup2>
    10004dd6:	89 45 fc             	mov    %eax,-0x4(%rbp)
    10004dd9:	8b 45 ec             	mov    -0x14(%rbp),%eax
    10004ddc:	89 c7                	mov    %eax,%edi
    10004dde:	e8 5a e5 ff ff       	callq  1000333d <close>
    10004de3:	8b 45 fc             	mov    -0x4(%rbp),%eax
    10004de6:	c9                   	leaveq 
    10004de7:	c3                   	retq   

0000000010004de8 <umain>:
    10004de8:	55                   	push   %rbp
    10004de9:	48 89 e5             	mov    %rsp,%rbp
    10004dec:	48 83 ec 20          	sub    $0x20,%rsp
    10004df0:	89 7d ec             	mov    %edi,-0x14(%rbp)
    10004df3:	48 89 75 e0          	mov    %rsi,-0x20(%rbp)
    10004df7:	ba 00 00 00 00       	mov    $0x0,%edx
    10004dfc:	be b8 6f 00 10       	mov    $0x10006fb8,%esi
    10004e01:	bf 00 00 00 00       	mov    $0x0,%edi
    10004e06:	e8 57 ff ff ff       	callq  10004d62 <initfd>
    10004e0b:	89 45 fc             	mov    %eax,-0x4(%rbp)
    10004e0e:	83 7d fc 00          	cmpl   $0x0,-0x4(%rbp)
    10004e12:	79 1e                	jns    10004e32 <umain+0x4a>
    10004e14:	8b 45 fc             	mov    -0x4(%rbp),%eax
    10004e17:	89 c1                	mov    %eax,%ecx
    10004e19:	ba c3 6f 00 10       	mov    $0x10006fc3,%edx
    10004e1e:	be 1b 00 00 00       	mov    $0x1b,%esi
    10004e23:	bf dd 6f 00 10       	mov    $0x10006fdd,%edi
    10004e28:	b8 00 00 00 00       	mov    $0x0,%eax
    10004e2d:	e8 97 14 00 00       	callq  100062c9 <__warn>
    10004e32:	ba 01 00 00 00       	mov    $0x1,%edx
    10004e37:	be e5 6f 00 10       	mov    $0x10006fe5,%esi
    10004e3c:	bf 01 00 00 00       	mov    $0x1,%edi
    10004e41:	e8 1c ff ff ff       	callq  10004d62 <initfd>
    10004e46:	89 45 fc             	mov    %eax,-0x4(%rbp)
    10004e49:	83 7d fc 00          	cmpl   $0x0,-0x4(%rbp)
    10004e4d:	79 1e                	jns    10004e6d <umain+0x85>
    10004e4f:	8b 45 fc             	mov    -0x4(%rbp),%eax
    10004e52:	89 c1                	mov    %eax,%ecx
    10004e54:	ba f1 6f 00 10       	mov    $0x10006ff1,%edx
    10004e59:	be 1e 00 00 00       	mov    $0x1e,%esi
    10004e5e:	bf dd 6f 00 10       	mov    $0x10006fdd,%edi
    10004e63:	b8 00 00 00 00       	mov    $0x0,%eax
    10004e68:	e8 5c 14 00 00       	callq  100062c9 <__warn>
    10004e6d:	ba 01 00 00 00       	mov    $0x1,%edx
    10004e72:	be e5 6f 00 10       	mov    $0x10006fe5,%esi
    10004e77:	bf 02 00 00 00       	mov    $0x2,%edi
    10004e7c:	e8 e1 fe ff ff       	callq  10004d62 <initfd>
    10004e81:	89 45 fc             	mov    %eax,-0x4(%rbp)
    10004e84:	83 7d fc 00          	cmpl   $0x0,-0x4(%rbp)
    10004e88:	79 1e                	jns    10004ea8 <umain+0xc0>
    10004e8a:	8b 45 fc             	mov    -0x4(%rbp),%eax
    10004e8d:	89 c1                	mov    %eax,%ecx
    10004e8f:	ba 0c 70 00 10       	mov    $0x1000700c,%edx
    10004e94:	be 21 00 00 00       	mov    $0x21,%esi
    10004e99:	bf dd 6f 00 10       	mov    $0x10006fdd,%edi
    10004e9e:	b8 00 00 00 00       	mov    $0x0,%eax
    10004ea3:	e8 21 14 00 00       	callq  100062c9 <__warn>
    10004ea8:	48 8b 55 e0          	mov    -0x20(%rbp),%rdx
    10004eac:	8b 45 ec             	mov    -0x14(%rbp),%eax
    10004eaf:	48 89 d6             	mov    %rdx,%rsi
    10004eb2:	89 c7                	mov    %eax,%edi
    10004eb4:	e8 5e de ff ff       	callq  10002d17 <main>
    10004eb9:	89 45 f8             	mov    %eax,-0x8(%rbp)
    10004ebc:	8b 45 f8             	mov    -0x8(%rbp),%eax
    10004ebf:	89 c7                	mov    %eax,%edi
    10004ec1:	e8 4f fa ff ff       	callq  10004915 <exit>

0000000010004ec6 <setrlimit>:
    10004ec6:	55                   	push   %rbp
    10004ec7:	48 89 e5             	mov    %rsp,%rbp
    10004eca:	48 83 ec 10          	sub    $0x10,%rsp
    10004ece:	89 7d fc             	mov    %edi,-0x4(%rbp)
    10004ed1:	48 89 75 f0          	mov    %rsi,-0x10(%rbp)
    10004ed5:	48 8b 55 f0          	mov    -0x10(%rbp),%rdx
    10004ed9:	8b 45 fc             	mov    -0x4(%rbp),%eax
    10004edc:	48 89 d6             	mov    %rdx,%rsi
    10004edf:	89 c7                	mov    %eax,%edi
    10004ee1:	e8 ed f8 ff ff       	callq  100047d3 <sys_linux_setrlimit>
    10004ee6:	c9                   	leaveq 
    10004ee7:	c3                   	retq   

0000000010004ee8 <getrlimit>:
    10004ee8:	55                   	push   %rbp
    10004ee9:	48 89 e5             	mov    %rsp,%rbp
    10004eec:	48 83 ec 10          	sub    $0x10,%rsp
    10004ef0:	89 7d fc             	mov    %edi,-0x4(%rbp)
    10004ef3:	48 89 75 f0          	mov    %rsi,-0x10(%rbp)
    10004ef7:	48 8b 55 f0          	mov    -0x10(%rbp),%rdx
    10004efb:	8b 45 fc             	mov    -0x4(%rbp),%eax
    10004efe:	48 89 d6             	mov    %rdx,%rsi
    10004f01:	89 c7                	mov    %eax,%edi
    10004f03:	e8 a2 f8 ff ff       	callq  100047aa <sys_linux_getrlimit>
    10004f08:	c9                   	leaveq 
    10004f09:	c3                   	retq   

0000000010004f0a <printnum>:
    10004f0a:	55                   	push   %rbp
    10004f0b:	48 89 e5             	mov    %rsp,%rbp
    10004f0e:	48 83 ec 50          	sub    $0x50,%rsp
    10004f12:	48 89 7d d8          	mov    %rdi,-0x28(%rbp)
    10004f16:	89 75 d4             	mov    %esi,-0x2c(%rbp)
    10004f19:	48 89 55 c8          	mov    %rdx,-0x38(%rbp)
    10004f1d:	48 89 4d c0          	mov    %rcx,-0x40(%rbp)
    10004f21:	44 89 45 d0          	mov    %r8d,-0x30(%rbp)
    10004f25:	44 89 4d bc          	mov    %r9d,-0x44(%rbp)
    10004f29:	48 8b 45 c0          	mov    -0x40(%rbp),%rax
    10004f2d:	48 89 45 f8          	mov    %rax,-0x8(%rbp)
    10004f31:	8b 45 d0             	mov    -0x30(%rbp),%eax
    10004f34:	48 89 45 f0          	mov    %rax,-0x10(%rbp)
    10004f38:	48 8b 45 f8          	mov    -0x8(%rbp),%rax
    10004f3c:	ba 00 00 00 00       	mov    $0x0,%edx
    10004f41:	48 f7 75 f0          	divq   -0x10(%rbp)
    10004f45:	48 89 55 e8          	mov    %rdx,-0x18(%rbp)
    10004f49:	48 8b 45 f8          	mov    -0x8(%rbp),%rax
    10004f4d:	ba 00 00 00 00       	mov    $0x0,%edx
    10004f52:	48 f7 75 f0          	divq   -0x10(%rbp)
    10004f56:	48 89 45 f8          	mov    %rax,-0x8(%rbp)
    10004f5a:	48 8b 45 e8          	mov    -0x18(%rbp),%rax
    10004f5e:	89 45 e4             	mov    %eax,-0x1c(%rbp)
    10004f61:	8b 45 d0             	mov    -0x30(%rbp),%eax
    10004f64:	48 39 45 c0          	cmp    %rax,-0x40(%rbp)
    10004f68:	72 43                	jb     10004fad <printnum+0xa3>
    10004f6a:	8b 45 bc             	mov    -0x44(%rbp),%eax
    10004f6d:	44 8d 48 ff          	lea    -0x1(%rax),%r9d
    10004f71:	44 8b 45 d0          	mov    -0x30(%rbp),%r8d
    10004f75:	48 8b 4d f8          	mov    -0x8(%rbp),%rcx
    10004f79:	48 8b 55 c8          	mov    -0x38(%rbp),%rdx
    10004f7d:	8b 75 d4             	mov    -0x2c(%rbp),%esi
    10004f80:	48 8b 45 d8          	mov    -0x28(%rbp),%rax
    10004f84:	48 83 ec 08          	sub    $0x8,%rsp
    10004f88:	8b 7d 10             	mov    0x10(%rbp),%edi
    10004f8b:	57                   	push   %rdi
    10004f8c:	48 89 c7             	mov    %rax,%rdi
    10004f8f:	e8 76 ff ff ff       	callq  10004f0a <printnum>
    10004f94:	48 83 c4 10          	add    $0x10,%rsp
    10004f98:	eb 1d                	jmp    10004fb7 <printnum+0xad>
    10004f9a:	8b 55 d4             	mov    -0x2c(%rbp),%edx
    10004f9d:	48 8b 4d c8          	mov    -0x38(%rbp),%rcx
    10004fa1:	48 8b 45 d8          	mov    -0x28(%rbp),%rax
    10004fa5:	48 89 ce             	mov    %rcx,%rsi
    10004fa8:	8b 7d 10             	mov    0x10(%rbp),%edi
    10004fab:	ff d0                	callq  *%rax
    10004fad:	83 6d bc 01          	subl   $0x1,-0x44(%rbp)
    10004fb1:	83 7d bc 00          	cmpl   $0x0,-0x44(%rbp)
    10004fb5:	7f e3                	jg     10004f9a <printnum+0x90>
    10004fb7:	8b 45 e4             	mov    -0x1c(%rbp),%eax
    10004fba:	0f b6 80 80 74 00 10 	movzbl 0x10007480(%rax),%eax
    10004fc1:	0f be c8             	movsbl %al,%ecx
    10004fc4:	8b 55 d4             	mov    -0x2c(%rbp),%edx
    10004fc7:	48 8b 75 c8          	mov    -0x38(%rbp),%rsi
    10004fcb:	48 8b 45 d8          	mov    -0x28(%rbp),%rax
    10004fcf:	89 cf                	mov    %ecx,%edi
    10004fd1:	ff d0                	callq  *%rax
    10004fd3:	90                   	nop
    10004fd4:	c9                   	leaveq 
    10004fd5:	c3                   	retq   

0000000010004fd6 <printfmt>:
    10004fd6:	55                   	push   %rbp
    10004fd7:	48 89 e5             	mov    %rsp,%rbp
    10004fda:	48 81 ec f0 00 00 00 	sub    $0xf0,%rsp
    10004fe1:	48 89 bd 28 ff ff ff 	mov    %rdi,-0xd8(%rbp)
    10004fe8:	89 b5 24 ff ff ff    	mov    %esi,-0xdc(%rbp)
    10004fee:	48 89 95 18 ff ff ff 	mov    %rdx,-0xe8(%rbp)
    10004ff5:	48 89 8d 10 ff ff ff 	mov    %rcx,-0xf0(%rbp)
    10004ffc:	4c 89 85 70 ff ff ff 	mov    %r8,-0x90(%rbp)
    10005003:	4c 89 8d 78 ff ff ff 	mov    %r9,-0x88(%rbp)
    1000500a:	84 c0                	test   %al,%al
    1000500c:	74 20                	je     1000502e <printfmt+0x58>
    1000500e:	0f 29 45 80          	movaps %xmm0,-0x80(%rbp)
    10005012:	0f 29 4d 90          	movaps %xmm1,-0x70(%rbp)
    10005016:	0f 29 55 a0          	movaps %xmm2,-0x60(%rbp)
    1000501a:	0f 29 5d b0          	movaps %xmm3,-0x50(%rbp)
    1000501e:	0f 29 65 c0          	movaps %xmm4,-0x40(%rbp)
    10005022:	0f 29 6d d0          	movaps %xmm5,-0x30(%rbp)
    10005026:	0f 29 75 e0          	movaps %xmm6,-0x20(%rbp)
    1000502a:	0f 29 7d f0          	movaps %xmm7,-0x10(%rbp)
    1000502e:	c7 85 38 ff ff ff 20 	movl   $0x20,-0xc8(%rbp)
    10005035:	00 00 00 
    10005038:	c7 85 3c ff ff ff 30 	movl   $0x30,-0xc4(%rbp)
    1000503f:	00 00 00 
    10005042:	48 8d 45 10          	lea    0x10(%rbp),%rax
    10005046:	48 89 85 40 ff ff ff 	mov    %rax,-0xc0(%rbp)
    1000504d:	48 8d 85 50 ff ff ff 	lea    -0xb0(%rbp),%rax
    10005054:	48 89 85 48 ff ff ff 	mov    %rax,-0xb8(%rbp)
    1000505b:	48 8d bd 38 ff ff ff 	lea    -0xc8(%rbp),%rdi
    10005062:	48 8b 8d 10 ff ff ff 	mov    -0xf0(%rbp),%rcx
    10005069:	48 8b 95 18 ff ff ff 	mov    -0xe8(%rbp),%rdx
    10005070:	8b b5 24 ff ff ff    	mov    -0xdc(%rbp),%esi
    10005076:	48 8b 85 28 ff ff ff 	mov    -0xd8(%rbp),%rax
    1000507d:	49 89 f8             	mov    %rdi,%r8
    10005080:	48 89 c7             	mov    %rax,%rdi
    10005083:	e8 03 00 00 00       	callq  1000508b <vprintfmt>
    10005088:	90                   	nop
    10005089:	c9                   	leaveq 
    1000508a:	c3                   	retq   

000000001000508b <vprintfmt>:
    1000508b:	55                   	push   %rbp
    1000508c:	48 89 e5             	mov    %rsp,%rbp
    1000508f:	41 54                	push   %r12
    10005091:	53                   	push   %rbx
    10005092:	48 83 ec 50          	sub    $0x50,%rsp
    10005096:	48 89 7d c8          	mov    %rdi,-0x38(%rbp)
    1000509a:	89 75 c4             	mov    %esi,-0x3c(%rbp)
    1000509d:	48 89 55 b8          	mov    %rdx,-0x48(%rbp)
    100050a1:	48 89 4d b0          	mov    %rcx,-0x50(%rbp)
    100050a5:	4c 89 45 a8          	mov    %r8,-0x58(%rbp)
    100050a9:	eb 1a                	jmp    100050c5 <vprintfmt+0x3a>
    100050ab:	85 db                	test   %ebx,%ebx
    100050ad:	0f 84 59 08 00 00    	je     1000590c <vprintfmt+0x881>
    100050b3:	8b 55 c4             	mov    -0x3c(%rbp),%edx
    100050b6:	48 8b 4d b8          	mov    -0x48(%rbp),%rcx
    100050ba:	48 8b 45 c8          	mov    -0x38(%rbp),%rax
    100050be:	48 89 ce             	mov    %rcx,%rsi
    100050c1:	89 df                	mov    %ebx,%edi
    100050c3:	ff d0                	callq  *%rax
    100050c5:	48 8b 45 b0          	mov    -0x50(%rbp),%rax
    100050c9:	48 8d 50 01          	lea    0x1(%rax),%rdx
    100050cd:	48 89 55 b0          	mov    %rdx,-0x50(%rbp)
    100050d1:	0f b6 00             	movzbl (%rax),%eax
    100050d4:	0f b6 d8             	movzbl %al,%ebx
    100050d7:	83 fb 25             	cmp    $0x25,%ebx
    100050da:	75 cf                	jne    100050ab <vprintfmt+0x20>
    100050dc:	c6 45 d3 20          	movb   $0x20,-0x2d(%rbp)
    100050e0:	c7 45 dc ff ff ff ff 	movl   $0xffffffff,-0x24(%rbp)
    100050e7:	8b 45 dc             	mov    -0x24(%rbp),%eax
    100050ea:	89 45 e0             	mov    %eax,-0x20(%rbp)
    100050ed:	c7 45 d4 00 00 00 00 	movl   $0x0,-0x2c(%rbp)
    100050f4:	8b 45 d4             	mov    -0x2c(%rbp),%eax
    100050f7:	89 45 d8             	mov    %eax,-0x28(%rbp)
    100050fa:	48 8b 45 b0          	mov    -0x50(%rbp),%rax
    100050fe:	48 8d 50 01          	lea    0x1(%rax),%rdx
    10005102:	48 89 55 b0          	mov    %rdx,-0x50(%rbp)
    10005106:	0f b6 00             	movzbl (%rax),%eax
    10005109:	0f b6 d8             	movzbl %al,%ebx
    1000510c:	8d 43 dd             	lea    -0x23(%rbx),%eax
    1000510f:	83 f8 55             	cmp    $0x55,%eax
    10005112:	0f 87 be 07 00 00    	ja     100058d6 <vprintfmt+0x84b>
    10005118:	89 c0                	mov    %eax,%eax
    1000511a:	48 8b 04 c5 a8 74 00 	mov    0x100074a8(,%rax,8),%rax
    10005121:	10 
    10005122:	ff e0                	jmpq   *%rax
    10005124:	c6 45 d3 2d          	movb   $0x2d,-0x2d(%rbp)
    10005128:	eb d0                	jmp    100050fa <vprintfmt+0x6f>
    1000512a:	c6 45 d3 30          	movb   $0x30,-0x2d(%rbp)
    1000512e:	eb ca                	jmp    100050fa <vprintfmt+0x6f>
    10005130:	c7 45 dc 00 00 00 00 	movl   $0x0,-0x24(%rbp)
    10005137:	8b 55 dc             	mov    -0x24(%rbp),%edx
    1000513a:	89 d0                	mov    %edx,%eax
    1000513c:	c1 e0 02             	shl    $0x2,%eax
    1000513f:	01 d0                	add    %edx,%eax
    10005141:	01 c0                	add    %eax,%eax
    10005143:	01 d8                	add    %ebx,%eax
    10005145:	83 e8 30             	sub    $0x30,%eax
    10005148:	89 45 dc             	mov    %eax,-0x24(%rbp)
    1000514b:	48 8b 45 b0          	mov    -0x50(%rbp),%rax
    1000514f:	0f b6 00             	movzbl (%rax),%eax
    10005152:	0f be d8             	movsbl %al,%ebx
    10005155:	83 fb 2f             	cmp    $0x2f,%ebx
    10005158:	7e 78                	jle    100051d2 <vprintfmt+0x147>
    1000515a:	83 fb 39             	cmp    $0x39,%ebx
    1000515d:	7f 73                	jg     100051d2 <vprintfmt+0x147>
    1000515f:	48 83 45 b0 01       	addq   $0x1,-0x50(%rbp)
    10005164:	eb d1                	jmp    10005137 <vprintfmt+0xac>
    10005166:	48 8b 45 a8          	mov    -0x58(%rbp),%rax
    1000516a:	8b 00                	mov    (%rax),%eax
    1000516c:	83 f8 2f             	cmp    $0x2f,%eax
    1000516f:	77 24                	ja     10005195 <vprintfmt+0x10a>
    10005171:	48 8b 45 a8          	mov    -0x58(%rbp),%rax
    10005175:	48 8b 50 10          	mov    0x10(%rax),%rdx
    10005179:	48 8b 45 a8          	mov    -0x58(%rbp),%rax
    1000517d:	8b 00                	mov    (%rax),%eax
    1000517f:	89 c0                	mov    %eax,%eax
    10005181:	48 01 d0             	add    %rdx,%rax
    10005184:	48 8b 55 a8          	mov    -0x58(%rbp),%rdx
    10005188:	8b 12                	mov    (%rdx),%edx
    1000518a:	8d 4a 08             	lea    0x8(%rdx),%ecx
    1000518d:	48 8b 55 a8          	mov    -0x58(%rbp),%rdx
    10005191:	89 0a                	mov    %ecx,(%rdx)
    10005193:	eb 14                	jmp    100051a9 <vprintfmt+0x11e>
    10005195:	48 8b 45 a8          	mov    -0x58(%rbp),%rax
    10005199:	48 8b 40 08          	mov    0x8(%rax),%rax
    1000519d:	48 8d 48 08          	lea    0x8(%rax),%rcx
    100051a1:	48 8b 55 a8          	mov    -0x58(%rbp),%rdx
    100051a5:	48 89 4a 08          	mov    %rcx,0x8(%rdx)
    100051a9:	8b 00                	mov    (%rax),%eax
    100051ab:	89 45 dc             	mov    %eax,-0x24(%rbp)
    100051ae:	eb 23                	jmp    100051d3 <vprintfmt+0x148>
    100051b0:	83 7d e0 00          	cmpl   $0x0,-0x20(%rbp)
    100051b4:	0f 89 40 ff ff ff    	jns    100050fa <vprintfmt+0x6f>
    100051ba:	c7 45 e0 00 00 00 00 	movl   $0x0,-0x20(%rbp)
    100051c1:	e9 34 ff ff ff       	jmpq   100050fa <vprintfmt+0x6f>
    100051c6:	c7 45 d4 01 00 00 00 	movl   $0x1,-0x2c(%rbp)
    100051cd:	e9 28 ff ff ff       	jmpq   100050fa <vprintfmt+0x6f>
    100051d2:	90                   	nop
    100051d3:	83 7d e0 00          	cmpl   $0x0,-0x20(%rbp)
    100051d7:	0f 89 1d ff ff ff    	jns    100050fa <vprintfmt+0x6f>
    100051dd:	8b 45 dc             	mov    -0x24(%rbp),%eax
    100051e0:	89 45 e0             	mov    %eax,-0x20(%rbp)
    100051e3:	c7 45 dc ff ff ff ff 	movl   $0xffffffff,-0x24(%rbp)
    100051ea:	e9 0b ff ff ff       	jmpq   100050fa <vprintfmt+0x6f>
    100051ef:	83 45 d8 01          	addl   $0x1,-0x28(%rbp)
    100051f3:	e9 02 ff ff ff       	jmpq   100050fa <vprintfmt+0x6f>
    100051f8:	48 8b 45 a8          	mov    -0x58(%rbp),%rax
    100051fc:	8b 00                	mov    (%rax),%eax
    100051fe:	83 f8 2f             	cmp    $0x2f,%eax
    10005201:	77 24                	ja     10005227 <vprintfmt+0x19c>
    10005203:	48 8b 45 a8          	mov    -0x58(%rbp),%rax
    10005207:	48 8b 50 10          	mov    0x10(%rax),%rdx
    1000520b:	48 8b 45 a8          	mov    -0x58(%rbp),%rax
    1000520f:	8b 00                	mov    (%rax),%eax
    10005211:	89 c0                	mov    %eax,%eax
    10005213:	48 01 d0             	add    %rdx,%rax
    10005216:	48 8b 55 a8          	mov    -0x58(%rbp),%rdx
    1000521a:	8b 12                	mov    (%rdx),%edx
    1000521c:	8d 4a 08             	lea    0x8(%rdx),%ecx
    1000521f:	48 8b 55 a8          	mov    -0x58(%rbp),%rdx
    10005223:	89 0a                	mov    %ecx,(%rdx)
    10005225:	eb 14                	jmp    1000523b <vprintfmt+0x1b0>
    10005227:	48 8b 45 a8          	mov    -0x58(%rbp),%rax
    1000522b:	48 8b 40 08          	mov    0x8(%rax),%rax
    1000522f:	48 8d 48 08          	lea    0x8(%rax),%rcx
    10005233:	48 8b 55 a8          	mov    -0x58(%rbp),%rdx
    10005237:	48 89 4a 08          	mov    %rcx,0x8(%rdx)
    1000523b:	8b 08                	mov    (%rax),%ecx
    1000523d:	8b 55 c4             	mov    -0x3c(%rbp),%edx
    10005240:	48 8b 75 b8          	mov    -0x48(%rbp),%rsi
    10005244:	48 8b 45 c8          	mov    -0x38(%rbp),%rax
    10005248:	89 cf                	mov    %ecx,%edi
    1000524a:	ff d0                	callq  *%rax
    1000524c:	e9 b6 06 00 00       	jmpq   10005907 <vprintfmt+0x87c>
    10005251:	48 8b 45 a8          	mov    -0x58(%rbp),%rax
    10005255:	8b 00                	mov    (%rax),%eax
    10005257:	83 f8 2f             	cmp    $0x2f,%eax
    1000525a:	77 24                	ja     10005280 <vprintfmt+0x1f5>
    1000525c:	48 8b 45 a8          	mov    -0x58(%rbp),%rax
    10005260:	48 8b 50 10          	mov    0x10(%rax),%rdx
    10005264:	48 8b 45 a8          	mov    -0x58(%rbp),%rax
    10005268:	8b 00                	mov    (%rax),%eax
    1000526a:	89 c0                	mov    %eax,%eax
    1000526c:	48 01 d0             	add    %rdx,%rax
    1000526f:	48 8b 55 a8          	mov    -0x58(%rbp),%rdx
    10005273:	8b 12                	mov    (%rdx),%edx
    10005275:	8d 4a 08             	lea    0x8(%rdx),%ecx
    10005278:	48 8b 55 a8          	mov    -0x58(%rbp),%rdx
    1000527c:	89 0a                	mov    %ecx,(%rdx)
    1000527e:	eb 14                	jmp    10005294 <vprintfmt+0x209>
    10005280:	48 8b 45 a8          	mov    -0x58(%rbp),%rax
    10005284:	48 8b 40 08          	mov    0x8(%rax),%rax
    10005288:	48 8d 48 08          	lea    0x8(%rax),%rcx
    1000528c:	48 8b 55 a8          	mov    -0x58(%rbp),%rdx
    10005290:	48 89 4a 08          	mov    %rcx,0x8(%rdx)
    10005294:	8b 18                	mov    (%rax),%ebx
    10005296:	85 db                	test   %ebx,%ebx
    10005298:	79 02                	jns    1000529c <vprintfmt+0x211>
    1000529a:	f7 db                	neg    %ebx
    1000529c:	83 fb 27             	cmp    $0x27,%ebx
    1000529f:	7f 10                	jg     100052b1 <vprintfmt+0x226>
    100052a1:	48 63 c3             	movslq %ebx,%rax
    100052a4:	4c 8b 24 c5 40 73 00 	mov    0x10007340(,%rax,8),%r12
    100052ab:	10 
    100052ac:	4d 85 e4             	test   %r12,%r12
    100052af:	75 25                	jne    100052d6 <vprintfmt+0x24b>
    100052b1:	48 8b 55 b8          	mov    -0x48(%rbp),%rdx
    100052b5:	8b 75 c4             	mov    -0x3c(%rbp),%esi
    100052b8:	48 8b 45 c8          	mov    -0x38(%rbp),%rax
    100052bc:	41 89 d8             	mov    %ebx,%r8d
    100052bf:	b9 91 74 00 10       	mov    $0x10007491,%ecx
    100052c4:	48 89 c7             	mov    %rax,%rdi
    100052c7:	b8 00 00 00 00       	mov    $0x0,%eax
    100052cc:	e8 05 fd ff ff       	callq  10004fd6 <printfmt>
    100052d1:	e9 31 06 00 00       	jmpq   10005907 <vprintfmt+0x87c>
    100052d6:	48 8b 55 b8          	mov    -0x48(%rbp),%rdx
    100052da:	8b 75 c4             	mov    -0x3c(%rbp),%esi
    100052dd:	48 8b 45 c8          	mov    -0x38(%rbp),%rax
    100052e1:	4d 89 e0             	mov    %r12,%r8
    100052e4:	b9 9a 74 00 10       	mov    $0x1000749a,%ecx
    100052e9:	48 89 c7             	mov    %rax,%rdi
    100052ec:	b8 00 00 00 00       	mov    $0x0,%eax
    100052f1:	e8 e0 fc ff ff       	callq  10004fd6 <printfmt>
    100052f6:	e9 0c 06 00 00       	jmpq   10005907 <vprintfmt+0x87c>
    100052fb:	48 8b 45 a8          	mov    -0x58(%rbp),%rax
    100052ff:	8b 00                	mov    (%rax),%eax
    10005301:	83 f8 2f             	cmp    $0x2f,%eax
    10005304:	77 24                	ja     1000532a <vprintfmt+0x29f>
    10005306:	48 8b 45 a8          	mov    -0x58(%rbp),%rax
    1000530a:	48 8b 50 10          	mov    0x10(%rax),%rdx
    1000530e:	48 8b 45 a8          	mov    -0x58(%rbp),%rax
    10005312:	8b 00                	mov    (%rax),%eax
    10005314:	89 c0                	mov    %eax,%eax
    10005316:	48 01 d0             	add    %rdx,%rax
    10005319:	48 8b 55 a8          	mov    -0x58(%rbp),%rdx
    1000531d:	8b 12                	mov    (%rdx),%edx
    1000531f:	8d 4a 08             	lea    0x8(%rdx),%ecx
    10005322:	48 8b 55 a8          	mov    -0x58(%rbp),%rdx
    10005326:	89 0a                	mov    %ecx,(%rdx)
    10005328:	eb 14                	jmp    1000533e <vprintfmt+0x2b3>
    1000532a:	48 8b 45 a8          	mov    -0x58(%rbp),%rax
    1000532e:	48 8b 40 08          	mov    0x8(%rax),%rax
    10005332:	48 8d 48 08          	lea    0x8(%rax),%rcx
    10005336:	48 8b 55 a8          	mov    -0x58(%rbp),%rdx
    1000533a:	48 89 4a 08          	mov    %rcx,0x8(%rdx)
    1000533e:	4c 8b 20             	mov    (%rax),%r12
    10005341:	4d 85 e4             	test   %r12,%r12
    10005344:	75 06                	jne    1000534c <vprintfmt+0x2c1>
    10005346:	41 bc 9d 74 00 10    	mov    $0x1000749d,%r12d
    1000534c:	83 7d e0 00          	cmpl   $0x0,-0x20(%rbp)
    10005350:	7e 7f                	jle    100053d1 <vprintfmt+0x346>
    10005352:	80 7d d3 2d          	cmpb   $0x2d,-0x2d(%rbp)
    10005356:	74 79                	je     100053d1 <vprintfmt+0x346>
    10005358:	8b 45 dc             	mov    -0x24(%rbp),%eax
    1000535b:	48 98                	cltq   
    1000535d:	48 89 c6             	mov    %rax,%rsi
    10005360:	4c 89 e7             	mov    %r12,%rdi
    10005363:	e8 65 07 00 00       	callq  10005acd <strnlen>
    10005368:	48 89 c2             	mov    %rax,%rdx
    1000536b:	8b 45 e0             	mov    -0x20(%rbp),%eax
    1000536e:	29 d0                	sub    %edx,%eax
    10005370:	89 45 e0             	mov    %eax,-0x20(%rbp)
    10005373:	eb 17                	jmp    1000538c <vprintfmt+0x301>
    10005375:	0f be 4d d3          	movsbl -0x2d(%rbp),%ecx
    10005379:	8b 55 c4             	mov    -0x3c(%rbp),%edx
    1000537c:	48 8b 75 b8          	mov    -0x48(%rbp),%rsi
    10005380:	48 8b 45 c8          	mov    -0x38(%rbp),%rax
    10005384:	89 cf                	mov    %ecx,%edi
    10005386:	ff d0                	callq  *%rax
    10005388:	83 6d e0 01          	subl   $0x1,-0x20(%rbp)
    1000538c:	83 7d e0 00          	cmpl   $0x0,-0x20(%rbp)
    10005390:	7f e3                	jg     10005375 <vprintfmt+0x2ea>
    10005392:	eb 3d                	jmp    100053d1 <vprintfmt+0x346>
    10005394:	83 7d d4 00          	cmpl   $0x0,-0x2c(%rbp)
    10005398:	74 21                	je     100053bb <vprintfmt+0x330>
    1000539a:	83 fb 1f             	cmp    $0x1f,%ebx
    1000539d:	7e 05                	jle    100053a4 <vprintfmt+0x319>
    1000539f:	83 fb 7e             	cmp    $0x7e,%ebx
    100053a2:	7e 17                	jle    100053bb <vprintfmt+0x330>
    100053a4:	8b 55 c4             	mov    -0x3c(%rbp),%edx
    100053a7:	48 8b 4d b8          	mov    -0x48(%rbp),%rcx
    100053ab:	48 8b 45 c8          	mov    -0x38(%rbp),%rax
    100053af:	48 89 ce             	mov    %rcx,%rsi
    100053b2:	bf 3f 00 00 00       	mov    $0x3f,%edi
    100053b7:	ff d0                	callq  *%rax
    100053b9:	eb 12                	jmp    100053cd <vprintfmt+0x342>
    100053bb:	8b 55 c4             	mov    -0x3c(%rbp),%edx
    100053be:	48 8b 4d b8          	mov    -0x48(%rbp),%rcx
    100053c2:	48 8b 45 c8          	mov    -0x38(%rbp),%rax
    100053c6:	48 89 ce             	mov    %rcx,%rsi
    100053c9:	89 df                	mov    %ebx,%edi
    100053cb:	ff d0                	callq  *%rax
    100053cd:	83 6d e0 01          	subl   $0x1,-0x20(%rbp)
    100053d1:	4c 89 e0             	mov    %r12,%rax
    100053d4:	4c 8d 60 01          	lea    0x1(%rax),%r12
    100053d8:	0f b6 00             	movzbl (%rax),%eax
    100053db:	0f be d8             	movsbl %al,%ebx
    100053de:	85 db                	test   %ebx,%ebx
    100053e0:	74 2b                	je     1000540d <vprintfmt+0x382>
    100053e2:	83 7d dc 00          	cmpl   $0x0,-0x24(%rbp)
    100053e6:	78 ac                	js     10005394 <vprintfmt+0x309>
    100053e8:	83 6d dc 01          	subl   $0x1,-0x24(%rbp)
    100053ec:	83 7d dc 00          	cmpl   $0x0,-0x24(%rbp)
    100053f0:	79 a2                	jns    10005394 <vprintfmt+0x309>
    100053f2:	eb 19                	jmp    1000540d <vprintfmt+0x382>
    100053f4:	8b 55 c4             	mov    -0x3c(%rbp),%edx
    100053f7:	48 8b 4d b8          	mov    -0x48(%rbp),%rcx
    100053fb:	48 8b 45 c8          	mov    -0x38(%rbp),%rax
    100053ff:	48 89 ce             	mov    %rcx,%rsi
    10005402:	bf 20 00 00 00       	mov    $0x20,%edi
    10005407:	ff d0                	callq  *%rax
    10005409:	83 6d e0 01          	subl   $0x1,-0x20(%rbp)
    1000540d:	83 7d e0 00          	cmpl   $0x0,-0x20(%rbp)
    10005411:	7f e1                	jg     100053f4 <vprintfmt+0x369>
    10005413:	e9 ef 04 00 00       	jmpq   10005907 <vprintfmt+0x87c>
    10005418:	83 7d d8 01          	cmpl   $0x1,-0x28(%rbp)
    1000541c:	7e 4b                	jle    10005469 <vprintfmt+0x3de>
    1000541e:	48 8b 45 a8          	mov    -0x58(%rbp),%rax
    10005422:	8b 00                	mov    (%rax),%eax
    10005424:	83 f8 2f             	cmp    $0x2f,%eax
    10005427:	77 24                	ja     1000544d <vprintfmt+0x3c2>
    10005429:	48 8b 45 a8          	mov    -0x58(%rbp),%rax
    1000542d:	48 8b 50 10          	mov    0x10(%rax),%rdx
    10005431:	48 8b 45 a8          	mov    -0x58(%rbp),%rax
    10005435:	8b 00                	mov    (%rax),%eax
    10005437:	89 c0                	mov    %eax,%eax
    10005439:	48 01 d0             	add    %rdx,%rax
    1000543c:	48 8b 55 a8          	mov    -0x58(%rbp),%rdx
    10005440:	8b 12                	mov    (%rdx),%edx
    10005442:	8d 4a 08             	lea    0x8(%rdx),%ecx
    10005445:	48 8b 55 a8          	mov    -0x58(%rbp),%rdx
    10005449:	89 0a                	mov    %ecx,(%rdx)
    1000544b:	eb 14                	jmp    10005461 <vprintfmt+0x3d6>
    1000544d:	48 8b 45 a8          	mov    -0x58(%rbp),%rax
    10005451:	48 8b 40 08          	mov    0x8(%rax),%rax
    10005455:	48 8d 48 08          	lea    0x8(%rax),%rcx
    10005459:	48 8b 55 a8          	mov    -0x58(%rbp),%rdx
    1000545d:	48 89 4a 08          	mov    %rcx,0x8(%rdx)
    10005461:	48 8b 00             	mov    (%rax),%rax
    10005464:	e9 95 00 00 00       	jmpq   100054fe <vprintfmt+0x473>
    10005469:	83 7d d8 00          	cmpl   $0x0,-0x28(%rbp)
    1000546d:	74 48                	je     100054b7 <vprintfmt+0x42c>
    1000546f:	48 8b 45 a8          	mov    -0x58(%rbp),%rax
    10005473:	8b 00                	mov    (%rax),%eax
    10005475:	83 f8 2f             	cmp    $0x2f,%eax
    10005478:	77 24                	ja     1000549e <vprintfmt+0x413>
    1000547a:	48 8b 45 a8          	mov    -0x58(%rbp),%rax
    1000547e:	48 8b 50 10          	mov    0x10(%rax),%rdx
    10005482:	48 8b 45 a8          	mov    -0x58(%rbp),%rax
    10005486:	8b 00                	mov    (%rax),%eax
    10005488:	89 c0                	mov    %eax,%eax
    1000548a:	48 01 d0             	add    %rdx,%rax
    1000548d:	48 8b 55 a8          	mov    -0x58(%rbp),%rdx
    10005491:	8b 12                	mov    (%rdx),%edx
    10005493:	8d 4a 08             	lea    0x8(%rdx),%ecx
    10005496:	48 8b 55 a8          	mov    -0x58(%rbp),%rdx
    1000549a:	89 0a                	mov    %ecx,(%rdx)
    1000549c:	eb 14                	jmp    100054b2 <vprintfmt+0x427>
    1000549e:	48 8b 45 a8          	mov    -0x58(%rbp),%rax
    100054a2:	48 8b 40 08          	mov    0x8(%rax),%rax
    100054a6:	48 8d 48 08          	lea    0x8(%rax),%rcx
    100054aa:	48 8b 55 a8          	mov    -0x58(%rbp),%rdx
    100054ae:	48 89 4a 08          	mov    %rcx,0x8(%rdx)
    100054b2:	48 8b 00             	mov    (%rax),%rax
    100054b5:	eb 47                	jmp    100054fe <vprintfmt+0x473>
    100054b7:	48 8b 45 a8          	mov    -0x58(%rbp),%rax
    100054bb:	8b 00                	mov    (%rax),%eax
    100054bd:	83 f8 2f             	cmp    $0x2f,%eax
    100054c0:	77 24                	ja     100054e6 <vprintfmt+0x45b>
    100054c2:	48 8b 45 a8          	mov    -0x58(%rbp),%rax
    100054c6:	48 8b 50 10          	mov    0x10(%rax),%rdx
    100054ca:	48 8b 45 a8          	mov    -0x58(%rbp),%rax
    100054ce:	8b 00                	mov    (%rax),%eax
    100054d0:	89 c0                	mov    %eax,%eax
    100054d2:	48 01 d0             	add    %rdx,%rax
    100054d5:	48 8b 55 a8          	mov    -0x58(%rbp),%rdx
    100054d9:	8b 12                	mov    (%rdx),%edx
    100054db:	8d 4a 08             	lea    0x8(%rdx),%ecx
    100054de:	48 8b 55 a8          	mov    -0x58(%rbp),%rdx
    100054e2:	89 0a                	mov    %ecx,(%rdx)
    100054e4:	eb 14                	jmp    100054fa <vprintfmt+0x46f>
    100054e6:	48 8b 45 a8          	mov    -0x58(%rbp),%rax
    100054ea:	48 8b 40 08          	mov    0x8(%rax),%rax
    100054ee:	48 8d 48 08          	lea    0x8(%rax),%rcx
    100054f2:	48 8b 55 a8          	mov    -0x58(%rbp),%rdx
    100054f6:	48 89 4a 08          	mov    %rcx,0x8(%rdx)
    100054fa:	8b 00                	mov    (%rax),%eax
    100054fc:	48 98                	cltq   
    100054fe:	48 89 45 e8          	mov    %rax,-0x18(%rbp)
    10005502:	48 8b 45 e8          	mov    -0x18(%rbp),%rax
    10005506:	48 85 c0             	test   %rax,%rax
    10005509:	79 20                	jns    1000552b <vprintfmt+0x4a0>
    1000550b:	8b 55 c4             	mov    -0x3c(%rbp),%edx
    1000550e:	48 8b 4d b8          	mov    -0x48(%rbp),%rcx
    10005512:	48 8b 45 c8          	mov    -0x38(%rbp),%rax
    10005516:	48 89 ce             	mov    %rcx,%rsi
    10005519:	bf 2d 00 00 00       	mov    $0x2d,%edi
    1000551e:	ff d0                	callq  *%rax
    10005520:	48 8b 45 e8          	mov    -0x18(%rbp),%rax
    10005524:	48 f7 d8             	neg    %rax
    10005527:	48 89 45 e8          	mov    %rax,-0x18(%rbp)
    1000552b:	c7 45 e4 0a 00 00 00 	movl   $0xa,-0x1c(%rbp)
    10005532:	e9 5d 03 00 00       	jmpq   10005894 <vprintfmt+0x809>
    10005537:	83 7d d8 01          	cmpl   $0x1,-0x28(%rbp)
    1000553b:	7e 4b                	jle    10005588 <vprintfmt+0x4fd>
    1000553d:	48 8b 45 a8          	mov    -0x58(%rbp),%rax
    10005541:	8b 00                	mov    (%rax),%eax
    10005543:	83 f8 2f             	cmp    $0x2f,%eax
    10005546:	77 24                	ja     1000556c <vprintfmt+0x4e1>
    10005548:	48 8b 45 a8          	mov    -0x58(%rbp),%rax
    1000554c:	48 8b 50 10          	mov    0x10(%rax),%rdx
    10005550:	48 8b 45 a8          	mov    -0x58(%rbp),%rax
    10005554:	8b 00                	mov    (%rax),%eax
    10005556:	89 c0                	mov    %eax,%eax
    10005558:	48 01 d0             	add    %rdx,%rax
    1000555b:	48 8b 55 a8          	mov    -0x58(%rbp),%rdx
    1000555f:	8b 12                	mov    (%rdx),%edx
    10005561:	8d 4a 08             	lea    0x8(%rdx),%ecx
    10005564:	48 8b 55 a8          	mov    -0x58(%rbp),%rdx
    10005568:	89 0a                	mov    %ecx,(%rdx)
    1000556a:	eb 14                	jmp    10005580 <vprintfmt+0x4f5>
    1000556c:	48 8b 45 a8          	mov    -0x58(%rbp),%rax
    10005570:	48 8b 40 08          	mov    0x8(%rax),%rax
    10005574:	48 8d 48 08          	lea    0x8(%rax),%rcx
    10005578:	48 8b 55 a8          	mov    -0x58(%rbp),%rdx
    1000557c:	48 89 4a 08          	mov    %rcx,0x8(%rdx)
    10005580:	48 8b 00             	mov    (%rax),%rax
    10005583:	e9 95 00 00 00       	jmpq   1000561d <vprintfmt+0x592>
    10005588:	83 7d d8 00          	cmpl   $0x0,-0x28(%rbp)
    1000558c:	74 48                	je     100055d6 <vprintfmt+0x54b>
    1000558e:	48 8b 45 a8          	mov    -0x58(%rbp),%rax
    10005592:	8b 00                	mov    (%rax),%eax
    10005594:	83 f8 2f             	cmp    $0x2f,%eax
    10005597:	77 24                	ja     100055bd <vprintfmt+0x532>
    10005599:	48 8b 45 a8          	mov    -0x58(%rbp),%rax
    1000559d:	48 8b 50 10          	mov    0x10(%rax),%rdx
    100055a1:	48 8b 45 a8          	mov    -0x58(%rbp),%rax
    100055a5:	8b 00                	mov    (%rax),%eax
    100055a7:	89 c0                	mov    %eax,%eax
    100055a9:	48 01 d0             	add    %rdx,%rax
    100055ac:	48 8b 55 a8          	mov    -0x58(%rbp),%rdx
    100055b0:	8b 12                	mov    (%rdx),%edx
    100055b2:	8d 4a 08             	lea    0x8(%rdx),%ecx
    100055b5:	48 8b 55 a8          	mov    -0x58(%rbp),%rdx
    100055b9:	89 0a                	mov    %ecx,(%rdx)
    100055bb:	eb 14                	jmp    100055d1 <vprintfmt+0x546>
    100055bd:	48 8b 45 a8          	mov    -0x58(%rbp),%rax
    100055c1:	48 8b 40 08          	mov    0x8(%rax),%rax
    100055c5:	48 8d 48 08          	lea    0x8(%rax),%rcx
    100055c9:	48 8b 55 a8          	mov    -0x58(%rbp),%rdx
    100055cd:	48 89 4a 08          	mov    %rcx,0x8(%rdx)
    100055d1:	48 8b 00             	mov    (%rax),%rax
    100055d4:	eb 47                	jmp    1000561d <vprintfmt+0x592>
    100055d6:	48 8b 45 a8          	mov    -0x58(%rbp),%rax
    100055da:	8b 00                	mov    (%rax),%eax
    100055dc:	83 f8 2f             	cmp    $0x2f,%eax
    100055df:	77 24                	ja     10005605 <vprintfmt+0x57a>
    100055e1:	48 8b 45 a8          	mov    -0x58(%rbp),%rax
    100055e5:	48 8b 50 10          	mov    0x10(%rax),%rdx
    100055e9:	48 8b 45 a8          	mov    -0x58(%rbp),%rax
    100055ed:	8b 00                	mov    (%rax),%eax
    100055ef:	89 c0                	mov    %eax,%eax
    100055f1:	48 01 d0             	add    %rdx,%rax
    100055f4:	48 8b 55 a8          	mov    -0x58(%rbp),%rdx
    100055f8:	8b 12                	mov    (%rdx),%edx
    100055fa:	8d 4a 08             	lea    0x8(%rdx),%ecx
    100055fd:	48 8b 55 a8          	mov    -0x58(%rbp),%rdx
    10005601:	89 0a                	mov    %ecx,(%rdx)
    10005603:	eb 14                	jmp    10005619 <vprintfmt+0x58e>
    10005605:	48 8b 45 a8          	mov    -0x58(%rbp),%rax
    10005609:	48 8b 40 08          	mov    0x8(%rax),%rax
    1000560d:	48 8d 48 08          	lea    0x8(%rax),%rcx
    10005611:	48 8b 55 a8          	mov    -0x58(%rbp),%rdx
    10005615:	48 89 4a 08          	mov    %rcx,0x8(%rdx)
    10005619:	8b 00                	mov    (%rax),%eax
    1000561b:	89 c0                	mov    %eax,%eax
    1000561d:	48 89 45 e8          	mov    %rax,-0x18(%rbp)
    10005621:	c7 45 e4 0a 00 00 00 	movl   $0xa,-0x1c(%rbp)
    10005628:	e9 67 02 00 00       	jmpq   10005894 <vprintfmt+0x809>
    1000562d:	83 7d d8 01          	cmpl   $0x1,-0x28(%rbp)
    10005631:	7e 4b                	jle    1000567e <vprintfmt+0x5f3>
    10005633:	48 8b 45 a8          	mov    -0x58(%rbp),%rax
    10005637:	8b 00                	mov    (%rax),%eax
    10005639:	83 f8 2f             	cmp    $0x2f,%eax
    1000563c:	77 24                	ja     10005662 <vprintfmt+0x5d7>
    1000563e:	48 8b 45 a8          	mov    -0x58(%rbp),%rax
    10005642:	48 8b 50 10          	mov    0x10(%rax),%rdx
    10005646:	48 8b 45 a8          	mov    -0x58(%rbp),%rax
    1000564a:	8b 00                	mov    (%rax),%eax
    1000564c:	89 c0                	mov    %eax,%eax
    1000564e:	48 01 d0             	add    %rdx,%rax
    10005651:	48 8b 55 a8          	mov    -0x58(%rbp),%rdx
    10005655:	8b 12                	mov    (%rdx),%edx
    10005657:	8d 4a 08             	lea    0x8(%rdx),%ecx
    1000565a:	48 8b 55 a8          	mov    -0x58(%rbp),%rdx
    1000565e:	89 0a                	mov    %ecx,(%rdx)
    10005660:	eb 14                	jmp    10005676 <vprintfmt+0x5eb>
    10005662:	48 8b 45 a8          	mov    -0x58(%rbp),%rax
    10005666:	48 8b 40 08          	mov    0x8(%rax),%rax
    1000566a:	48 8d 48 08          	lea    0x8(%rax),%rcx
    1000566e:	48 8b 55 a8          	mov    -0x58(%rbp),%rdx
    10005672:	48 89 4a 08          	mov    %rcx,0x8(%rdx)
    10005676:	48 8b 00             	mov    (%rax),%rax
    10005679:	e9 95 00 00 00       	jmpq   10005713 <vprintfmt+0x688>
    1000567e:	83 7d d8 00          	cmpl   $0x0,-0x28(%rbp)
    10005682:	74 48                	je     100056cc <vprintfmt+0x641>
    10005684:	48 8b 45 a8          	mov    -0x58(%rbp),%rax
    10005688:	8b 00                	mov    (%rax),%eax
    1000568a:	83 f8 2f             	cmp    $0x2f,%eax
    1000568d:	77 24                	ja     100056b3 <vprintfmt+0x628>
    1000568f:	48 8b 45 a8          	mov    -0x58(%rbp),%rax
    10005693:	48 8b 50 10          	mov    0x10(%rax),%rdx
    10005697:	48 8b 45 a8          	mov    -0x58(%rbp),%rax
    1000569b:	8b 00                	mov    (%rax),%eax
    1000569d:	89 c0                	mov    %eax,%eax
    1000569f:	48 01 d0             	add    %rdx,%rax
    100056a2:	48 8b 55 a8          	mov    -0x58(%rbp),%rdx
    100056a6:	8b 12                	mov    (%rdx),%edx
    100056a8:	8d 4a 08             	lea    0x8(%rdx),%ecx
    100056ab:	48 8b 55 a8          	mov    -0x58(%rbp),%rdx
    100056af:	89 0a                	mov    %ecx,(%rdx)
    100056b1:	eb 14                	jmp    100056c7 <vprintfmt+0x63c>
    100056b3:	48 8b 45 a8          	mov    -0x58(%rbp),%rax
    100056b7:	48 8b 40 08          	mov    0x8(%rax),%rax
    100056bb:	48 8d 48 08          	lea    0x8(%rax),%rcx
    100056bf:	48 8b 55 a8          	mov    -0x58(%rbp),%rdx
    100056c3:	48 89 4a 08          	mov    %rcx,0x8(%rdx)
    100056c7:	48 8b 00             	mov    (%rax),%rax
    100056ca:	eb 47                	jmp    10005713 <vprintfmt+0x688>
    100056cc:	48 8b 45 a8          	mov    -0x58(%rbp),%rax
    100056d0:	8b 00                	mov    (%rax),%eax
    100056d2:	83 f8 2f             	cmp    $0x2f,%eax
    100056d5:	77 24                	ja     100056fb <vprintfmt+0x670>
    100056d7:	48 8b 45 a8          	mov    -0x58(%rbp),%rax
    100056db:	48 8b 50 10          	mov    0x10(%rax),%rdx
    100056df:	48 8b 45 a8          	mov    -0x58(%rbp),%rax
    100056e3:	8b 00                	mov    (%rax),%eax
    100056e5:	89 c0                	mov    %eax,%eax
    100056e7:	48 01 d0             	add    %rdx,%rax
    100056ea:	48 8b 55 a8          	mov    -0x58(%rbp),%rdx
    100056ee:	8b 12                	mov    (%rdx),%edx
    100056f0:	8d 4a 08             	lea    0x8(%rdx),%ecx
    100056f3:	48 8b 55 a8          	mov    -0x58(%rbp),%rdx
    100056f7:	89 0a                	mov    %ecx,(%rdx)
    100056f9:	eb 14                	jmp    1000570f <vprintfmt+0x684>
    100056fb:	48 8b 45 a8          	mov    -0x58(%rbp),%rax
    100056ff:	48 8b 40 08          	mov    0x8(%rax),%rax
    10005703:	48 8d 48 08          	lea    0x8(%rax),%rcx
    10005707:	48 8b 55 a8          	mov    -0x58(%rbp),%rdx
    1000570b:	48 89 4a 08          	mov    %rcx,0x8(%rdx)
    1000570f:	8b 00                	mov    (%rax),%eax
    10005711:	89 c0                	mov    %eax,%eax
    10005713:	48 89 45 e8          	mov    %rax,-0x18(%rbp)
    10005717:	c7 45 e4 08 00 00 00 	movl   $0x8,-0x1c(%rbp)
    1000571e:	e9 71 01 00 00       	jmpq   10005894 <vprintfmt+0x809>
    10005723:	8b 55 c4             	mov    -0x3c(%rbp),%edx
    10005726:	48 8b 4d b8          	mov    -0x48(%rbp),%rcx
    1000572a:	48 8b 45 c8          	mov    -0x38(%rbp),%rax
    1000572e:	48 89 ce             	mov    %rcx,%rsi
    10005731:	bf 30 00 00 00       	mov    $0x30,%edi
    10005736:	ff d0                	callq  *%rax
    10005738:	8b 55 c4             	mov    -0x3c(%rbp),%edx
    1000573b:	48 8b 4d b8          	mov    -0x48(%rbp),%rcx
    1000573f:	48 8b 45 c8          	mov    -0x38(%rbp),%rax
    10005743:	48 89 ce             	mov    %rcx,%rsi
    10005746:	bf 78 00 00 00       	mov    $0x78,%edi
    1000574b:	ff d0                	callq  *%rax
    1000574d:	48 8b 45 a8          	mov    -0x58(%rbp),%rax
    10005751:	8b 00                	mov    (%rax),%eax
    10005753:	83 f8 2f             	cmp    $0x2f,%eax
    10005756:	77 24                	ja     1000577c <vprintfmt+0x6f1>
    10005758:	48 8b 45 a8          	mov    -0x58(%rbp),%rax
    1000575c:	48 8b 50 10          	mov    0x10(%rax),%rdx
    10005760:	48 8b 45 a8          	mov    -0x58(%rbp),%rax
    10005764:	8b 00                	mov    (%rax),%eax
    10005766:	89 c0                	mov    %eax,%eax
    10005768:	48 01 d0             	add    %rdx,%rax
    1000576b:	48 8b 55 a8          	mov    -0x58(%rbp),%rdx
    1000576f:	8b 12                	mov    (%rdx),%edx
    10005771:	8d 4a 08             	lea    0x8(%rdx),%ecx
    10005774:	48 8b 55 a8          	mov    -0x58(%rbp),%rdx
    10005778:	89 0a                	mov    %ecx,(%rdx)
    1000577a:	eb 14                	jmp    10005790 <vprintfmt+0x705>
    1000577c:	48 8b 45 a8          	mov    -0x58(%rbp),%rax
    10005780:	48 8b 40 08          	mov    0x8(%rax),%rax
    10005784:	48 8d 48 08          	lea    0x8(%rax),%rcx
    10005788:	48 8b 55 a8          	mov    -0x58(%rbp),%rdx
    1000578c:	48 89 4a 08          	mov    %rcx,0x8(%rdx)
    10005790:	48 8b 00             	mov    (%rax),%rax
    10005793:	48 89 45 e8          	mov    %rax,-0x18(%rbp)
    10005797:	c7 45 e4 10 00 00 00 	movl   $0x10,-0x1c(%rbp)
    1000579e:	e9 f1 00 00 00       	jmpq   10005894 <vprintfmt+0x809>
    100057a3:	83 7d d8 01          	cmpl   $0x1,-0x28(%rbp)
    100057a7:	7e 4b                	jle    100057f4 <vprintfmt+0x769>
    100057a9:	48 8b 45 a8          	mov    -0x58(%rbp),%rax
    100057ad:	8b 00                	mov    (%rax),%eax
    100057af:	83 f8 2f             	cmp    $0x2f,%eax
    100057b2:	77 24                	ja     100057d8 <vprintfmt+0x74d>
    100057b4:	48 8b 45 a8          	mov    -0x58(%rbp),%rax
    100057b8:	48 8b 50 10          	mov    0x10(%rax),%rdx
    100057bc:	48 8b 45 a8          	mov    -0x58(%rbp),%rax
    100057c0:	8b 00                	mov    (%rax),%eax
    100057c2:	89 c0                	mov    %eax,%eax
    100057c4:	48 01 d0             	add    %rdx,%rax
    100057c7:	48 8b 55 a8          	mov    -0x58(%rbp),%rdx
    100057cb:	8b 12                	mov    (%rdx),%edx
    100057cd:	8d 4a 08             	lea    0x8(%rdx),%ecx
    100057d0:	48 8b 55 a8          	mov    -0x58(%rbp),%rdx
    100057d4:	89 0a                	mov    %ecx,(%rdx)
    100057d6:	eb 14                	jmp    100057ec <vprintfmt+0x761>
    100057d8:	48 8b 45 a8          	mov    -0x58(%rbp),%rax
    100057dc:	48 8b 40 08          	mov    0x8(%rax),%rax
    100057e0:	48 8d 48 08          	lea    0x8(%rax),%rcx
    100057e4:	48 8b 55 a8          	mov    -0x58(%rbp),%rdx
    100057e8:	48 89 4a 08          	mov    %rcx,0x8(%rdx)
    100057ec:	48 8b 00             	mov    (%rax),%rax
    100057ef:	e9 95 00 00 00       	jmpq   10005889 <vprintfmt+0x7fe>
    100057f4:	83 7d d8 00          	cmpl   $0x0,-0x28(%rbp)
    100057f8:	74 48                	je     10005842 <vprintfmt+0x7b7>
    100057fa:	48 8b 45 a8          	mov    -0x58(%rbp),%rax
    100057fe:	8b 00                	mov    (%rax),%eax
    10005800:	83 f8 2f             	cmp    $0x2f,%eax
    10005803:	77 24                	ja     10005829 <vprintfmt+0x79e>
    10005805:	48 8b 45 a8          	mov    -0x58(%rbp),%rax
    10005809:	48 8b 50 10          	mov    0x10(%rax),%rdx
    1000580d:	48 8b 45 a8          	mov    -0x58(%rbp),%rax
    10005811:	8b 00                	mov    (%rax),%eax
    10005813:	89 c0                	mov    %eax,%eax
    10005815:	48 01 d0             	add    %rdx,%rax
    10005818:	48 8b 55 a8          	mov    -0x58(%rbp),%rdx
    1000581c:	8b 12                	mov    (%rdx),%edx
    1000581e:	8d 4a 08             	lea    0x8(%rdx),%ecx
    10005821:	48 8b 55 a8          	mov    -0x58(%rbp),%rdx
    10005825:	89 0a                	mov    %ecx,(%rdx)
    10005827:	eb 14                	jmp    1000583d <vprintfmt+0x7b2>
    10005829:	48 8b 45 a8          	mov    -0x58(%rbp),%rax
    1000582d:	48 8b 40 08          	mov    0x8(%rax),%rax
    10005831:	48 8d 48 08          	lea    0x8(%rax),%rcx
    10005835:	48 8b 55 a8          	mov    -0x58(%rbp),%rdx
    10005839:	48 89 4a 08          	mov    %rcx,0x8(%rdx)
    1000583d:	48 8b 00             	mov    (%rax),%rax
    10005840:	eb 47                	jmp    10005889 <vprintfmt+0x7fe>
    10005842:	48 8b 45 a8          	mov    -0x58(%rbp),%rax
    10005846:	8b 00                	mov    (%rax),%eax
    10005848:	83 f8 2f             	cmp    $0x2f,%eax
    1000584b:	77 24                	ja     10005871 <vprintfmt+0x7e6>
    1000584d:	48 8b 45 a8          	mov    -0x58(%rbp),%rax
    10005851:	48 8b 50 10          	mov    0x10(%rax),%rdx
    10005855:	48 8b 45 a8          	mov    -0x58(%rbp),%rax
    10005859:	8b 00                	mov    (%rax),%eax
    1000585b:	89 c0                	mov    %eax,%eax
    1000585d:	48 01 d0             	add    %rdx,%rax
    10005860:	48 8b 55 a8          	mov    -0x58(%rbp),%rdx
    10005864:	8b 12                	mov    (%rdx),%edx
    10005866:	8d 4a 08             	lea    0x8(%rdx),%ecx
    10005869:	48 8b 55 a8          	mov    -0x58(%rbp),%rdx
    1000586d:	89 0a                	mov    %ecx,(%rdx)
    1000586f:	eb 14                	jmp    10005885 <vprintfmt+0x7fa>
    10005871:	48 8b 45 a8          	mov    -0x58(%rbp),%rax
    10005875:	48 8b 40 08          	mov    0x8(%rax),%rax
    10005879:	48 8d 48 08          	lea    0x8(%rax),%rcx
    1000587d:	48 8b 55 a8          	mov    -0x58(%rbp),%rdx
    10005881:	48 89 4a 08          	mov    %rcx,0x8(%rdx)
    10005885:	8b 00                	mov    (%rax),%eax
    10005887:	89 c0                	mov    %eax,%eax
    10005889:	48 89 45 e8          	mov    %rax,-0x18(%rbp)
    1000588d:	c7 45 e4 10 00 00 00 	movl   $0x10,-0x1c(%rbp)
    10005894:	0f be 7d d3          	movsbl -0x2d(%rbp),%edi
    10005898:	44 8b 45 e4          	mov    -0x1c(%rbp),%r8d
    1000589c:	44 8b 4d e0          	mov    -0x20(%rbp),%r9d
    100058a0:	48 8b 4d e8          	mov    -0x18(%rbp),%rcx
    100058a4:	48 8b 55 b8          	mov    -0x48(%rbp),%rdx
    100058a8:	8b 75 c4             	mov    -0x3c(%rbp),%esi
    100058ab:	48 8b 45 c8          	mov    -0x38(%rbp),%rax
    100058af:	48 83 ec 08          	sub    $0x8,%rsp
    100058b3:	57                   	push   %rdi
    100058b4:	48 89 c7             	mov    %rax,%rdi
    100058b7:	e8 4e f6 ff ff       	callq  10004f0a <printnum>
    100058bc:	48 83 c4 10          	add    $0x10,%rsp
    100058c0:	eb 45                	jmp    10005907 <vprintfmt+0x87c>
    100058c2:	8b 55 c4             	mov    -0x3c(%rbp),%edx
    100058c5:	48 8b 4d b8          	mov    -0x48(%rbp),%rcx
    100058c9:	48 8b 45 c8          	mov    -0x38(%rbp),%rax
    100058cd:	48 89 ce             	mov    %rcx,%rsi
    100058d0:	89 df                	mov    %ebx,%edi
    100058d2:	ff d0                	callq  *%rax
    100058d4:	eb 31                	jmp    10005907 <vprintfmt+0x87c>
    100058d6:	8b 55 c4             	mov    -0x3c(%rbp),%edx
    100058d9:	48 8b 4d b8          	mov    -0x48(%rbp),%rcx
    100058dd:	48 8b 45 c8          	mov    -0x38(%rbp),%rax
    100058e1:	48 89 ce             	mov    %rcx,%rsi
    100058e4:	bf 25 00 00 00       	mov    $0x25,%edi
    100058e9:	ff d0                	callq  *%rax
    100058eb:	48 83 6d b0 01       	subq   $0x1,-0x50(%rbp)
    100058f0:	eb 05                	jmp    100058f7 <vprintfmt+0x86c>
    100058f2:	48 83 6d b0 01       	subq   $0x1,-0x50(%rbp)
    100058f7:	48 8b 45 b0          	mov    -0x50(%rbp),%rax
    100058fb:	48 83 e8 01          	sub    $0x1,%rax
    100058ff:	0f b6 00             	movzbl (%rax),%eax
    10005902:	3c 25                	cmp    $0x25,%al
    10005904:	75 ec                	jne    100058f2 <vprintfmt+0x867>
    10005906:	90                   	nop
    10005907:	e9 9d f7 ff ff       	jmpq   100050a9 <vprintfmt+0x1e>
    1000590c:	90                   	nop
    1000590d:	48 8d 65 f0          	lea    -0x10(%rbp),%rsp
    10005911:	5b                   	pop    %rbx
    10005912:	41 5c                	pop    %r12
    10005914:	5d                   	pop    %rbp
    10005915:	c3                   	retq   

0000000010005916 <sprintputch>:
    10005916:	55                   	push   %rbp
    10005917:	48 89 e5             	mov    %rsp,%rbp
    1000591a:	89 7d fc             	mov    %edi,-0x4(%rbp)
    1000591d:	48 89 75 f0          	mov    %rsi,-0x10(%rbp)
    10005921:	48 8b 45 f0          	mov    -0x10(%rbp),%rax
    10005925:	8b 40 10             	mov    0x10(%rax),%eax
    10005928:	8d 50 01             	lea    0x1(%rax),%edx
    1000592b:	48 8b 45 f0          	mov    -0x10(%rbp),%rax
    1000592f:	89 50 10             	mov    %edx,0x10(%rax)
    10005932:	48 8b 45 f0          	mov    -0x10(%rbp),%rax
    10005936:	48 8b 10             	mov    (%rax),%rdx
    10005939:	48 8b 45 f0          	mov    -0x10(%rbp),%rax
    1000593d:	48 8b 40 08          	mov    0x8(%rax),%rax
    10005941:	48 39 c2             	cmp    %rax,%rdx
    10005944:	73 17                	jae    1000595d <sprintputch+0x47>
    10005946:	48 8b 45 f0          	mov    -0x10(%rbp),%rax
    1000594a:	48 8b 00             	mov    (%rax),%rax
    1000594d:	48 8d 48 01          	lea    0x1(%rax),%rcx
    10005951:	48 8b 55 f0          	mov    -0x10(%rbp),%rdx
    10005955:	48 89 0a             	mov    %rcx,(%rdx)
    10005958:	8b 55 fc             	mov    -0x4(%rbp),%edx
    1000595b:	88 10                	mov    %dl,(%rax)
    1000595d:	90                   	nop
    1000595e:	5d                   	pop    %rbp
    1000595f:	c3                   	retq   

0000000010005960 <snprintf>:
    10005960:	55                   	push   %rbp
    10005961:	48 89 e5             	mov    %rsp,%rbp
    10005964:	48 81 ec f0 00 00 00 	sub    $0xf0,%rsp
    1000596b:	48 89 bd 28 ff ff ff 	mov    %rdi,-0xd8(%rbp)
    10005972:	48 89 b5 20 ff ff ff 	mov    %rsi,-0xe0(%rbp)
    10005979:	48 89 95 18 ff ff ff 	mov    %rdx,-0xe8(%rbp)
    10005980:	48 89 8d 68 ff ff ff 	mov    %rcx,-0x98(%rbp)
    10005987:	4c 89 85 70 ff ff ff 	mov    %r8,-0x90(%rbp)
    1000598e:	4c 89 8d 78 ff ff ff 	mov    %r9,-0x88(%rbp)
    10005995:	84 c0                	test   %al,%al
    10005997:	74 20                	je     100059b9 <snprintf+0x59>
    10005999:	0f 29 45 80          	movaps %xmm0,-0x80(%rbp)
    1000599d:	0f 29 4d 90          	movaps %xmm1,-0x70(%rbp)
    100059a1:	0f 29 55 a0          	movaps %xmm2,-0x60(%rbp)
    100059a5:	0f 29 5d b0          	movaps %xmm3,-0x50(%rbp)
    100059a9:	0f 29 65 c0          	movaps %xmm4,-0x40(%rbp)
    100059ad:	0f 29 6d d0          	movaps %xmm5,-0x30(%rbp)
    100059b1:	0f 29 75 e0          	movaps %xmm6,-0x20(%rbp)
    100059b5:	0f 29 7d f0          	movaps %xmm7,-0x10(%rbp)
    100059b9:	c7 85 30 ff ff ff 18 	movl   $0x18,-0xd0(%rbp)
    100059c0:	00 00 00 
    100059c3:	c7 85 34 ff ff ff 30 	movl   $0x30,-0xcc(%rbp)
    100059ca:	00 00 00 
    100059cd:	48 8d 45 10          	lea    0x10(%rbp),%rax
    100059d1:	48 89 85 38 ff ff ff 	mov    %rax,-0xc8(%rbp)
    100059d8:	48 8d 85 50 ff ff ff 	lea    -0xb0(%rbp),%rax
    100059df:	48 89 85 40 ff ff ff 	mov    %rax,-0xc0(%rbp)
    100059e6:	48 8d 8d 30 ff ff ff 	lea    -0xd0(%rbp),%rcx
    100059ed:	48 8b 95 18 ff ff ff 	mov    -0xe8(%rbp),%rdx
    100059f4:	48 8b b5 20 ff ff ff 	mov    -0xe0(%rbp),%rsi
    100059fb:	48 8b 85 28 ff ff ff 	mov    -0xd8(%rbp),%rax
    10005a02:	48 89 c7             	mov    %rax,%rdi
    10005a05:	e8 0e 00 00 00       	callq  10005a18 <vsnprintf>
    10005a0a:	89 85 4c ff ff ff    	mov    %eax,-0xb4(%rbp)
    10005a10:	8b 85 4c ff ff ff    	mov    -0xb4(%rbp),%eax
    10005a16:	c9                   	leaveq 
    10005a17:	c3                   	retq   

0000000010005a18 <vsnprintf>:
    10005a18:	55                   	push   %rbp
    10005a19:	48 89 e5             	mov    %rsp,%rbp
    10005a1c:	48 83 ec 40          	sub    $0x40,%rsp
    10005a20:	48 89 7d d8          	mov    %rdi,-0x28(%rbp)
    10005a24:	48 89 75 d0          	mov    %rsi,-0x30(%rbp)
    10005a28:	48 89 55 c8          	mov    %rdx,-0x38(%rbp)
    10005a2c:	48 89 4d c0          	mov    %rcx,-0x40(%rbp)
    10005a30:	48 8b 45 d8          	mov    -0x28(%rbp),%rax
    10005a34:	48 89 45 e0          	mov    %rax,-0x20(%rbp)
    10005a38:	48 8b 45 d0          	mov    -0x30(%rbp),%rax
    10005a3c:	48 8d 50 ff          	lea    -0x1(%rax),%rdx
    10005a40:	48 8b 45 d8          	mov    -0x28(%rbp),%rax
    10005a44:	48 01 d0             	add    %rdx,%rax
    10005a47:	48 89 45 e8          	mov    %rax,-0x18(%rbp)
    10005a4b:	c7 45 f0 00 00 00 00 	movl   $0x0,-0x10(%rbp)
    10005a52:	48 83 7d d8 00       	cmpq   $0x0,-0x28(%rbp)
    10005a57:	74 0d                	je     10005a66 <vsnprintf+0x4e>
    10005a59:	48 8b 55 e0          	mov    -0x20(%rbp),%rdx
    10005a5d:	48 8b 45 e8          	mov    -0x18(%rbp),%rax
    10005a61:	48 39 c2             	cmp    %rax,%rdx
    10005a64:	76 07                	jbe    10005a6d <vsnprintf+0x55>
    10005a66:	b8 ea ff ff ff       	mov    $0xffffffea,%eax
    10005a6b:	eb 2e                	jmp    10005a9b <vsnprintf+0x83>
    10005a6d:	48 8b 4d c0          	mov    -0x40(%rbp),%rcx
    10005a71:	48 8b 55 c8          	mov    -0x38(%rbp),%rdx
    10005a75:	48 8d 45 e0          	lea    -0x20(%rbp),%rax
    10005a79:	49 89 c8             	mov    %rcx,%r8
    10005a7c:	48 89 d1             	mov    %rdx,%rcx
    10005a7f:	48 89 c2             	mov    %rax,%rdx
    10005a82:	be d9 6a ff ff       	mov    $0xffff6ad9,%esi
    10005a87:	bf 16 59 00 10       	mov    $0x10005916,%edi
    10005a8c:	e8 fa f5 ff ff       	callq  1000508b <vprintfmt>
    10005a91:	48 8b 45 e0          	mov    -0x20(%rbp),%rax
    10005a95:	c6 00 00             	movb   $0x0,(%rax)
    10005a98:	8b 45 f0             	mov    -0x10(%rbp),%eax
    10005a9b:	c9                   	leaveq 
    10005a9c:	c3                   	retq   

0000000010005a9d <strlen>:
    10005a9d:	55                   	push   %rbp
    10005a9e:	48 89 e5             	mov    %rsp,%rbp
    10005aa1:	48 89 7d e8          	mov    %rdi,-0x18(%rbp)
    10005aa5:	48 c7 45 f8 00 00 00 	movq   $0x0,-0x8(%rbp)
    10005aac:	00 
    10005aad:	eb 05                	jmp    10005ab4 <strlen+0x17>
    10005aaf:	48 83 45 f8 01       	addq   $0x1,-0x8(%rbp)
    10005ab4:	48 8b 45 e8          	mov    -0x18(%rbp),%rax
    10005ab8:	48 8d 50 01          	lea    0x1(%rax),%rdx
    10005abc:	48 89 55 e8          	mov    %rdx,-0x18(%rbp)
    10005ac0:	0f b6 00             	movzbl (%rax),%eax
    10005ac3:	84 c0                	test   %al,%al
    10005ac5:	75 e8                	jne    10005aaf <strlen+0x12>
    10005ac7:	48 8b 45 f8          	mov    -0x8(%rbp),%rax
    10005acb:	5d                   	pop    %rbp
    10005acc:	c3                   	retq   

0000000010005acd <strnlen>:
    10005acd:	55                   	push   %rbp
    10005ace:	48 89 e5             	mov    %rsp,%rbp
    10005ad1:	48 89 7d e8          	mov    %rdi,-0x18(%rbp)
    10005ad5:	48 89 75 e0          	mov    %rsi,-0x20(%rbp)
    10005ad9:	48 c7 45 f8 00 00 00 	movq   $0x0,-0x8(%rbp)
    10005ae0:	00 
    10005ae1:	eb 05                	jmp    10005ae8 <strnlen+0x1b>
    10005ae3:	48 83 45 f8 01       	addq   $0x1,-0x8(%rbp)
    10005ae8:	48 8b 45 f8          	mov    -0x8(%rbp),%rax
    10005aec:	48 3b 45 e0          	cmp    -0x20(%rbp),%rax
    10005af0:	73 13                	jae    10005b05 <strnlen+0x38>
    10005af2:	48 8b 45 e8          	mov    -0x18(%rbp),%rax
    10005af6:	48 8d 50 01          	lea    0x1(%rax),%rdx
    10005afa:	48 89 55 e8          	mov    %rdx,-0x18(%rbp)
    10005afe:	0f b6 00             	movzbl (%rax),%eax
    10005b01:	84 c0                	test   %al,%al
    10005b03:	75 de                	jne    10005ae3 <strnlen+0x16>
    10005b05:	48 8b 45 f8          	mov    -0x8(%rbp),%rax
    10005b09:	5d                   	pop    %rbp
    10005b0a:	c3                   	retq   

0000000010005b0b <strcpy>:
    10005b0b:	55                   	push   %rbp
    10005b0c:	48 89 e5             	mov    %rsp,%rbp
    10005b0f:	48 89 7d d8          	mov    %rdi,-0x28(%rbp)
    10005b13:	48 89 75 d0          	mov    %rsi,-0x30(%rbp)
    10005b17:	48 8b 45 d8          	mov    -0x28(%rbp),%rax
    10005b1b:	48 89 45 f8          	mov    %rax,-0x8(%rbp)
    10005b1f:	48 8b 45 d0          	mov    -0x30(%rbp),%rax
    10005b23:	48 89 45 f0          	mov    %rax,-0x10(%rbp)
    10005b27:	48 8b 45 f0          	mov    -0x10(%rbp),%rax
    10005b2b:	48 8b 55 f8          	mov    -0x8(%rbp),%rdx
    10005b2f:	48 89 c6             	mov    %rax,%rsi
    10005b32:	48 89 d7             	mov    %rdx,%rdi
    10005b35:	ac                   	lods   %ds:(%rsi),%al
    10005b36:	aa                   	stos   %al,%es:(%rdi)
    10005b37:	84 c0                	test   %al,%al
    10005b39:	75 fa                	jne    10005b35 <strcpy+0x2a>
    10005b3b:	89 fa                	mov    %edi,%edx
    10005b3d:	89 f1                	mov    %esi,%ecx
    10005b3f:	89 4d ec             	mov    %ecx,-0x14(%rbp)
    10005b42:	89 55 e8             	mov    %edx,-0x18(%rbp)
    10005b45:	89 45 e4             	mov    %eax,-0x1c(%rbp)
    10005b48:	48 8b 45 f8          	mov    -0x8(%rbp),%rax
    10005b4c:	90                   	nop
    10005b4d:	5d                   	pop    %rbp
    10005b4e:	c3                   	retq   

0000000010005b4f <strncpy>:
    10005b4f:	55                   	push   %rbp
    10005b50:	48 89 e5             	mov    %rsp,%rbp
    10005b53:	48 89 7d e8          	mov    %rdi,-0x18(%rbp)
    10005b57:	48 89 75 e0          	mov    %rsi,-0x20(%rbp)
    10005b5b:	48 89 55 d8          	mov    %rdx,-0x28(%rbp)
    10005b5f:	48 8b 45 e8          	mov    -0x18(%rbp),%rax
    10005b63:	48 89 45 f8          	mov    %rax,-0x8(%rbp)
    10005b67:	eb 27                	jmp    10005b90 <strncpy+0x41>
    10005b69:	48 8b 45 e0          	mov    -0x20(%rbp),%rax
    10005b6d:	0f b6 10             	movzbl (%rax),%edx
    10005b70:	48 8b 45 f8          	mov    -0x8(%rbp),%rax
    10005b74:	88 10                	mov    %dl,(%rax)
    10005b76:	48 8b 45 f8          	mov    -0x8(%rbp),%rax
    10005b7a:	0f b6 00             	movzbl (%rax),%eax
    10005b7d:	84 c0                	test   %al,%al
    10005b7f:	74 05                	je     10005b86 <strncpy+0x37>
    10005b81:	48 83 45 e0 01       	addq   $0x1,-0x20(%rbp)
    10005b86:	48 83 45 f8 01       	addq   $0x1,-0x8(%rbp)
    10005b8b:	48 83 6d d8 01       	subq   $0x1,-0x28(%rbp)
    10005b90:	48 83 7d d8 00       	cmpq   $0x0,-0x28(%rbp)
    10005b95:	75 d2                	jne    10005b69 <strncpy+0x1a>
    10005b97:	48 8b 45 e8          	mov    -0x18(%rbp),%rax
    10005b9b:	5d                   	pop    %rbp
    10005b9c:	c3                   	retq   

0000000010005b9d <strcat>:
    10005b9d:	55                   	push   %rbp
    10005b9e:	48 89 e5             	mov    %rsp,%rbp
    10005ba1:	48 83 ec 10          	sub    $0x10,%rsp
    10005ba5:	48 89 7d f8          	mov    %rdi,-0x8(%rbp)
    10005ba9:	48 89 75 f0          	mov    %rsi,-0x10(%rbp)
    10005bad:	48 8b 45 f8          	mov    -0x8(%rbp),%rax
    10005bb1:	48 89 c7             	mov    %rax,%rdi
    10005bb4:	e8 e4 fe ff ff       	callq  10005a9d <strlen>
    10005bb9:	48 89 c2             	mov    %rax,%rdx
    10005bbc:	48 8b 45 f8          	mov    -0x8(%rbp),%rax
    10005bc0:	48 01 c2             	add    %rax,%rdx
    10005bc3:	48 8b 45 f0          	mov    -0x10(%rbp),%rax
    10005bc7:	48 89 c6             	mov    %rax,%rsi
    10005bca:	48 89 d7             	mov    %rdx,%rdi
    10005bcd:	e8 39 ff ff ff       	callq  10005b0b <strcpy>
    10005bd2:	c9                   	leaveq 
    10005bd3:	c3                   	retq   

0000000010005bd4 <strcmp>:
    10005bd4:	55                   	push   %rbp
    10005bd5:	48 89 e5             	mov    %rsp,%rbp
    10005bd8:	48 89 7d d8          	mov    %rdi,-0x28(%rbp)
    10005bdc:	48 89 75 d0          	mov    %rsi,-0x30(%rbp)
    10005be0:	48 8b 45 d8          	mov    -0x28(%rbp),%rax
    10005be4:	48 89 45 f8          	mov    %rax,-0x8(%rbp)
    10005be8:	48 8b 45 d0          	mov    -0x30(%rbp),%rax
    10005bec:	48 89 45 f0          	mov    %rax,-0x10(%rbp)
    10005bf0:	48 8b 45 f8          	mov    -0x8(%rbp),%rax
    10005bf4:	48 8b 55 f0          	mov    -0x10(%rbp),%rdx
    10005bf8:	48 89 c6             	mov    %rax,%rsi
    10005bfb:	48 89 d7             	mov    %rdx,%rdi
    10005bfe:	ac                   	lods   %ds:(%rsi),%al
    10005bff:	ae                   	scas   %es:(%rdi),%al
    10005c00:	75 08                	jne    10005c0a <strcmp+0x36>
    10005c02:	84 c0                	test   %al,%al
    10005c04:	75 f8                	jne    10005bfe <strcmp+0x2a>
    10005c06:	31 c0                	xor    %eax,%eax
    10005c08:	eb 04                	jmp    10005c0e <strcmp+0x3a>
    10005c0a:	19 c0                	sbb    %eax,%eax
    10005c0c:	0c 01                	or     $0x1,%al
    10005c0e:	89 fa                	mov    %edi,%edx
    10005c10:	89 f1                	mov    %esi,%ecx
    10005c12:	89 45 ec             	mov    %eax,-0x14(%rbp)
    10005c15:	89 4d e8             	mov    %ecx,-0x18(%rbp)
    10005c18:	89 55 e4             	mov    %edx,-0x1c(%rbp)
    10005c1b:	8b 45 ec             	mov    -0x14(%rbp),%eax
    10005c1e:	90                   	nop
    10005c1f:	5d                   	pop    %rbp
    10005c20:	c3                   	retq   

0000000010005c21 <strncmp>:
    10005c21:	55                   	push   %rbp
    10005c22:	48 89 e5             	mov    %rsp,%rbp
    10005c25:	48 89 7d f8          	mov    %rdi,-0x8(%rbp)
    10005c29:	48 89 75 f0          	mov    %rsi,-0x10(%rbp)
    10005c2d:	48 89 55 e8          	mov    %rdx,-0x18(%rbp)
    10005c31:	eb 0f                	jmp    10005c42 <strncmp+0x21>
    10005c33:	48 83 6d e8 01       	subq   $0x1,-0x18(%rbp)
    10005c38:	48 83 45 f8 01       	addq   $0x1,-0x8(%rbp)
    10005c3d:	48 83 45 f0 01       	addq   $0x1,-0x10(%rbp)
    10005c42:	48 83 7d e8 00       	cmpq   $0x0,-0x18(%rbp)
    10005c47:	74 1d                	je     10005c66 <strncmp+0x45>
    10005c49:	48 8b 45 f8          	mov    -0x8(%rbp),%rax
    10005c4d:	0f b6 00             	movzbl (%rax),%eax
    10005c50:	84 c0                	test   %al,%al
    10005c52:	74 12                	je     10005c66 <strncmp+0x45>
    10005c54:	48 8b 45 f8          	mov    -0x8(%rbp),%rax
    10005c58:	0f b6 10             	movzbl (%rax),%edx
    10005c5b:	48 8b 45 f0          	mov    -0x10(%rbp),%rax
    10005c5f:	0f b6 00             	movzbl (%rax),%eax
    10005c62:	38 c2                	cmp    %al,%dl
    10005c64:	74 cd                	je     10005c33 <strncmp+0x12>
    10005c66:	48 83 7d e8 00       	cmpq   $0x0,-0x18(%rbp)
    10005c6b:	74 1a                	je     10005c87 <strncmp+0x66>
    10005c6d:	48 8b 45 f8          	mov    -0x8(%rbp),%rax
    10005c71:	0f b6 00             	movzbl (%rax),%eax
    10005c74:	0f b6 d0             	movzbl %al,%edx
    10005c77:	48 8b 45 f0          	mov    -0x10(%rbp),%rax
    10005c7b:	0f b6 00             	movzbl (%rax),%eax
    10005c7e:	0f b6 c0             	movzbl %al,%eax
    10005c81:	29 c2                	sub    %eax,%edx
    10005c83:	89 d0                	mov    %edx,%eax
    10005c85:	eb 05                	jmp    10005c8c <strncmp+0x6b>
    10005c87:	b8 00 00 00 00       	mov    $0x0,%eax
    10005c8c:	5d                   	pop    %rbp
    10005c8d:	c3                   	retq   

0000000010005c8e <strchr>:
    10005c8e:	55                   	push   %rbp
    10005c8f:	48 89 e5             	mov    %rsp,%rbp
    10005c92:	48 89 7d f8          	mov    %rdi,-0x8(%rbp)
    10005c96:	89 f0                	mov    %esi,%eax
    10005c98:	88 45 f4             	mov    %al,-0xc(%rbp)
    10005c9b:	eb 17                	jmp    10005cb4 <strchr+0x26>
    10005c9d:	48 8b 45 f8          	mov    -0x8(%rbp),%rax
    10005ca1:	0f b6 00             	movzbl (%rax),%eax
    10005ca4:	38 45 f4             	cmp    %al,-0xc(%rbp)
    10005ca7:	75 06                	jne    10005caf <strchr+0x21>
    10005ca9:	48 8b 45 f8          	mov    -0x8(%rbp),%rax
    10005cad:	eb 15                	jmp    10005cc4 <strchr+0x36>
    10005caf:	48 83 45 f8 01       	addq   $0x1,-0x8(%rbp)
    10005cb4:	48 8b 45 f8          	mov    -0x8(%rbp),%rax
    10005cb8:	0f b6 00             	movzbl (%rax),%eax
    10005cbb:	84 c0                	test   %al,%al
    10005cbd:	75 de                	jne    10005c9d <strchr+0xf>
    10005cbf:	b8 00 00 00 00       	mov    $0x0,%eax
    10005cc4:	5d                   	pop    %rbp
    10005cc5:	c3                   	retq   

0000000010005cc6 <strfind>:
    10005cc6:	55                   	push   %rbp
    10005cc7:	48 89 e5             	mov    %rsp,%rbp
    10005cca:	48 89 7d f8          	mov    %rdi,-0x8(%rbp)
    10005cce:	89 f0                	mov    %esi,%eax
    10005cd0:	88 45 f4             	mov    %al,-0xc(%rbp)
    10005cd3:	eb 11                	jmp    10005ce6 <strfind+0x20>
    10005cd5:	48 8b 45 f8          	mov    -0x8(%rbp),%rax
    10005cd9:	0f b6 00             	movzbl (%rax),%eax
    10005cdc:	38 45 f4             	cmp    %al,-0xc(%rbp)
    10005cdf:	74 12                	je     10005cf3 <strfind+0x2d>
    10005ce1:	48 83 45 f8 01       	addq   $0x1,-0x8(%rbp)
    10005ce6:	48 8b 45 f8          	mov    -0x8(%rbp),%rax
    10005cea:	0f b6 00             	movzbl (%rax),%eax
    10005ced:	84 c0                	test   %al,%al
    10005cef:	75 e4                	jne    10005cd5 <strfind+0xf>
    10005cf1:	eb 01                	jmp    10005cf4 <strfind+0x2e>
    10005cf3:	90                   	nop
    10005cf4:	48 8b 45 f8          	mov    -0x8(%rbp),%rax
    10005cf8:	5d                   	pop    %rbp
    10005cf9:	c3                   	retq   

0000000010005cfa <strtol>:
    10005cfa:	55                   	push   %rbp
    10005cfb:	48 89 e5             	mov    %rsp,%rbp
    10005cfe:	48 89 7d d8          	mov    %rdi,-0x28(%rbp)
    10005d02:	48 89 75 d0          	mov    %rsi,-0x30(%rbp)
    10005d06:	89 55 cc             	mov    %edx,-0x34(%rbp)
    10005d09:	c7 45 fc 00 00 00 00 	movl   $0x0,-0x4(%rbp)
    10005d10:	48 c7 45 f0 00 00 00 	movq   $0x0,-0x10(%rbp)
    10005d17:	00 
    10005d18:	eb 05                	jmp    10005d1f <strtol+0x25>
    10005d1a:	48 83 45 d8 01       	addq   $0x1,-0x28(%rbp)
    10005d1f:	48 8b 45 d8          	mov    -0x28(%rbp),%rax
    10005d23:	0f b6 00             	movzbl (%rax),%eax
    10005d26:	3c 20                	cmp    $0x20,%al
    10005d28:	74 f0                	je     10005d1a <strtol+0x20>
    10005d2a:	48 8b 45 d8          	mov    -0x28(%rbp),%rax
    10005d2e:	0f b6 00             	movzbl (%rax),%eax
    10005d31:	3c 09                	cmp    $0x9,%al
    10005d33:	74 e5                	je     10005d1a <strtol+0x20>
    10005d35:	48 8b 45 d8          	mov    -0x28(%rbp),%rax
    10005d39:	0f b6 00             	movzbl (%rax),%eax
    10005d3c:	3c 2b                	cmp    $0x2b,%al
    10005d3e:	75 07                	jne    10005d47 <strtol+0x4d>
    10005d40:	48 83 45 d8 01       	addq   $0x1,-0x28(%rbp)
    10005d45:	eb 17                	jmp    10005d5e <strtol+0x64>
    10005d47:	48 8b 45 d8          	mov    -0x28(%rbp),%rax
    10005d4b:	0f b6 00             	movzbl (%rax),%eax
    10005d4e:	3c 2d                	cmp    $0x2d,%al
    10005d50:	75 0c                	jne    10005d5e <strtol+0x64>
    10005d52:	48 83 45 d8 01       	addq   $0x1,-0x28(%rbp)
    10005d57:	c7 45 fc 01 00 00 00 	movl   $0x1,-0x4(%rbp)
    10005d5e:	83 7d cc 00          	cmpl   $0x0,-0x34(%rbp)
    10005d62:	74 06                	je     10005d6a <strtol+0x70>
    10005d64:	83 7d cc 10          	cmpl   $0x10,-0x34(%rbp)
    10005d68:	75 28                	jne    10005d92 <strtol+0x98>
    10005d6a:	48 8b 45 d8          	mov    -0x28(%rbp),%rax
    10005d6e:	0f b6 00             	movzbl (%rax),%eax
    10005d71:	3c 30                	cmp    $0x30,%al
    10005d73:	75 1d                	jne    10005d92 <strtol+0x98>
    10005d75:	48 8b 45 d8          	mov    -0x28(%rbp),%rax
    10005d79:	48 83 c0 01          	add    $0x1,%rax
    10005d7d:	0f b6 00             	movzbl (%rax),%eax
    10005d80:	3c 78                	cmp    $0x78,%al
    10005d82:	75 0e                	jne    10005d92 <strtol+0x98>
    10005d84:	48 83 45 d8 02       	addq   $0x2,-0x28(%rbp)
    10005d89:	c7 45 cc 10 00 00 00 	movl   $0x10,-0x34(%rbp)
    10005d90:	eb 2c                	jmp    10005dbe <strtol+0xc4>
    10005d92:	83 7d cc 00          	cmpl   $0x0,-0x34(%rbp)
    10005d96:	75 19                	jne    10005db1 <strtol+0xb7>
    10005d98:	48 8b 45 d8          	mov    -0x28(%rbp),%rax
    10005d9c:	0f b6 00             	movzbl (%rax),%eax
    10005d9f:	3c 30                	cmp    $0x30,%al
    10005da1:	75 0e                	jne    10005db1 <strtol+0xb7>
    10005da3:	48 83 45 d8 01       	addq   $0x1,-0x28(%rbp)
    10005da8:	c7 45 cc 08 00 00 00 	movl   $0x8,-0x34(%rbp)
    10005daf:	eb 0d                	jmp    10005dbe <strtol+0xc4>
    10005db1:	83 7d cc 00          	cmpl   $0x0,-0x34(%rbp)
    10005db5:	75 07                	jne    10005dbe <strtol+0xc4>
    10005db7:	c7 45 cc 0a 00 00 00 	movl   $0xa,-0x34(%rbp)
    10005dbe:	48 8b 45 d8          	mov    -0x28(%rbp),%rax
    10005dc2:	0f b6 00             	movzbl (%rax),%eax
    10005dc5:	3c 2f                	cmp    $0x2f,%al
    10005dc7:	7e 1d                	jle    10005de6 <strtol+0xec>
    10005dc9:	48 8b 45 d8          	mov    -0x28(%rbp),%rax
    10005dcd:	0f b6 00             	movzbl (%rax),%eax
    10005dd0:	3c 39                	cmp    $0x39,%al
    10005dd2:	7f 12                	jg     10005de6 <strtol+0xec>
    10005dd4:	48 8b 45 d8          	mov    -0x28(%rbp),%rax
    10005dd8:	0f b6 00             	movzbl (%rax),%eax
    10005ddb:	0f be c0             	movsbl %al,%eax
    10005dde:	83 e8 30             	sub    $0x30,%eax
    10005de1:	89 45 ec             	mov    %eax,-0x14(%rbp)
    10005de4:	eb 4e                	jmp    10005e34 <strtol+0x13a>
    10005de6:	48 8b 45 d8          	mov    -0x28(%rbp),%rax
    10005dea:	0f b6 00             	movzbl (%rax),%eax
    10005ded:	3c 60                	cmp    $0x60,%al
    10005def:	7e 1d                	jle    10005e0e <strtol+0x114>
    10005df1:	48 8b 45 d8          	mov    -0x28(%rbp),%rax
    10005df5:	0f b6 00             	movzbl (%rax),%eax
    10005df8:	3c 7a                	cmp    $0x7a,%al
    10005dfa:	7f 12                	jg     10005e0e <strtol+0x114>
    10005dfc:	48 8b 45 d8          	mov    -0x28(%rbp),%rax
    10005e00:	0f b6 00             	movzbl (%rax),%eax
    10005e03:	0f be c0             	movsbl %al,%eax
    10005e06:	83 e8 57             	sub    $0x57,%eax
    10005e09:	89 45 ec             	mov    %eax,-0x14(%rbp)
    10005e0c:	eb 26                	jmp    10005e34 <strtol+0x13a>
    10005e0e:	48 8b 45 d8          	mov    -0x28(%rbp),%rax
    10005e12:	0f b6 00             	movzbl (%rax),%eax
    10005e15:	3c 40                	cmp    $0x40,%al
    10005e17:	7e 47                	jle    10005e60 <strtol+0x166>
    10005e19:	48 8b 45 d8          	mov    -0x28(%rbp),%rax
    10005e1d:	0f b6 00             	movzbl (%rax),%eax
    10005e20:	3c 5a                	cmp    $0x5a,%al
    10005e22:	7f 3c                	jg     10005e60 <strtol+0x166>
    10005e24:	48 8b 45 d8          	mov    -0x28(%rbp),%rax
    10005e28:	0f b6 00             	movzbl (%rax),%eax
    10005e2b:	0f be c0             	movsbl %al,%eax
    10005e2e:	83 e8 37             	sub    $0x37,%eax
    10005e31:	89 45 ec             	mov    %eax,-0x14(%rbp)
    10005e34:	8b 45 ec             	mov    -0x14(%rbp),%eax
    10005e37:	3b 45 cc             	cmp    -0x34(%rbp),%eax
    10005e3a:	7d 23                	jge    10005e5f <strtol+0x165>
    10005e3c:	48 83 45 d8 01       	addq   $0x1,-0x28(%rbp)
    10005e41:	8b 45 cc             	mov    -0x34(%rbp),%eax
    10005e44:	48 98                	cltq   
    10005e46:	48 0f af 45 f0       	imul   -0x10(%rbp),%rax
    10005e4b:	48 89 c2             	mov    %rax,%rdx
    10005e4e:	8b 45 ec             	mov    -0x14(%rbp),%eax
    10005e51:	48 98                	cltq   
    10005e53:	48 01 d0             	add    %rdx,%rax
    10005e56:	48 89 45 f0          	mov    %rax,-0x10(%rbp)
    10005e5a:	e9 5f ff ff ff       	jmpq   10005dbe <strtol+0xc4>
    10005e5f:	90                   	nop
    10005e60:	48 83 7d d0 00       	cmpq   $0x0,-0x30(%rbp)
    10005e65:	74 0b                	je     10005e72 <strtol+0x178>
    10005e67:	48 8b 45 d0          	mov    -0x30(%rbp),%rax
    10005e6b:	48 8b 55 d8          	mov    -0x28(%rbp),%rdx
    10005e6f:	48 89 10             	mov    %rdx,(%rax)
    10005e72:	83 7d fc 00          	cmpl   $0x0,-0x4(%rbp)
    10005e76:	74 09                	je     10005e81 <strtol+0x187>
    10005e78:	48 8b 45 f0          	mov    -0x10(%rbp),%rax
    10005e7c:	48 f7 d8             	neg    %rax
    10005e7f:	eb 04                	jmp    10005e85 <strtol+0x18b>
    10005e81:	48 8b 45 f0          	mov    -0x10(%rbp),%rax
    10005e85:	5d                   	pop    %rbp
    10005e86:	c3                   	retq   

0000000010005e87 <memset>:
    10005e87:	55                   	push   %rbp
    10005e88:	48 89 e5             	mov    %rsp,%rbp
    10005e8b:	48 89 7d d8          	mov    %rdi,-0x28(%rbp)
    10005e8f:	89 f0                	mov    %esi,%eax
    10005e91:	48 89 55 c8          	mov    %rdx,-0x38(%rbp)
    10005e95:	88 45 d4             	mov    %al,-0x2c(%rbp)
    10005e98:	0f be 45 d4          	movsbl -0x2c(%rbp),%eax
    10005e9c:	48 8b 55 d8          	mov    -0x28(%rbp),%rdx
    10005ea0:	48 89 55 f8          	mov    %rdx,-0x8(%rbp)
    10005ea4:	88 45 f7             	mov    %al,-0x9(%rbp)
    10005ea7:	48 8b 45 c8          	mov    -0x38(%rbp),%rax
    10005eab:	48 89 45 e8          	mov    %rax,-0x18(%rbp)
    10005eaf:	48 8b 55 e8          	mov    -0x18(%rbp),%rdx
    10005eb3:	0f b6 45 f7          	movzbl -0x9(%rbp),%eax
    10005eb7:	48 8b 75 f8          	mov    -0x8(%rbp),%rsi
    10005ebb:	48 89 d1             	mov    %rdx,%rcx
    10005ebe:	48 89 f7             	mov    %rsi,%rdi
    10005ec1:	f3 aa                	rep stos %al,%es:(%rdi)
    10005ec3:	89 f8                	mov    %edi,%eax
    10005ec5:	89 ca                	mov    %ecx,%edx
    10005ec7:	89 55 e4             	mov    %edx,-0x1c(%rbp)
    10005eca:	89 45 e0             	mov    %eax,-0x20(%rbp)
    10005ecd:	48 8b 45 f8          	mov    -0x8(%rbp),%rax
    10005ed1:	90                   	nop
    10005ed2:	5d                   	pop    %rbp
    10005ed3:	c3                   	retq   

0000000010005ed4 <memmove>:
    10005ed4:	55                   	push   %rbp
    10005ed5:	48 89 e5             	mov    %rsp,%rbp
    10005ed8:	48 89 7d a8          	mov    %rdi,-0x58(%rbp)
    10005edc:	48 89 75 a0          	mov    %rsi,-0x60(%rbp)
    10005ee0:	48 89 55 98          	mov    %rdx,-0x68(%rbp)
    10005ee4:	48 8b 45 a8          	mov    -0x58(%rbp),%rax
    10005ee8:	48 89 45 f8          	mov    %rax,-0x8(%rbp)
    10005eec:	48 8b 45 a0          	mov    -0x60(%rbp),%rax
    10005ef0:	48 89 45 f0          	mov    %rax,-0x10(%rbp)
    10005ef4:	48 8b 45 98          	mov    -0x68(%rbp),%rax
    10005ef8:	48 89 45 e8          	mov    %rax,-0x18(%rbp)
    10005efc:	48 8b 45 f8          	mov    -0x8(%rbp),%rax
    10005f00:	48 3b 45 f0          	cmp    -0x10(%rbp),%rax
    10005f04:	73 53                	jae    10005f59 <memmove+0x85>
    10005f06:	48 8b 45 f8          	mov    -0x8(%rbp),%rax
    10005f0a:	48 89 45 e0          	mov    %rax,-0x20(%rbp)
    10005f0e:	48 8b 45 f0          	mov    -0x10(%rbp),%rax
    10005f12:	48 89 45 d8          	mov    %rax,-0x28(%rbp)
    10005f16:	48 8b 45 e8          	mov    -0x18(%rbp),%rax
    10005f1a:	48 89 45 b8          	mov    %rax,-0x48(%rbp)
    10005f1e:	48 8b 45 b8          	mov    -0x48(%rbp),%rax
    10005f22:	48 c1 e8 02          	shr    $0x2,%rax
    10005f26:	49 89 c0             	mov    %rax,%r8
    10005f29:	48 8b 45 e0          	mov    -0x20(%rbp),%rax
    10005f2d:	48 8b 55 d8          	mov    -0x28(%rbp),%rdx
    10005f31:	48 89 c7             	mov    %rax,%rdi
    10005f34:	48 89 d6             	mov    %rdx,%rsi
    10005f37:	4c 89 c1             	mov    %r8,%rcx
    10005f3a:	f3 a5                	rep movsl %ds:(%rsi),%es:(%rdi)
    10005f3c:	8b 4d b8             	mov    -0x48(%rbp),%ecx
    10005f3f:	83 e1 03             	and    $0x3,%ecx
    10005f42:	74 02                	je     10005f46 <memmove+0x72>
    10005f44:	f3 a4                	rep movsb %ds:(%rsi),%es:(%rdi)
    10005f46:	89 f0                	mov    %esi,%eax
    10005f48:	89 fa                	mov    %edi,%edx
    10005f4a:	89 4d d4             	mov    %ecx,-0x2c(%rbp)
    10005f4d:	89 55 d0             	mov    %edx,-0x30(%rbp)
    10005f50:	89 45 cc             	mov    %eax,-0x34(%rbp)
    10005f53:	48 8b 45 e0          	mov    -0x20(%rbp),%rax
    10005f57:	eb 3e                	jmp    10005f97 <memmove+0xc3>
    10005f59:	48 8b 45 e8          	mov    -0x18(%rbp),%rax
    10005f5d:	48 8d 50 ff          	lea    -0x1(%rax),%rdx
    10005f61:	48 8b 45 f0          	mov    -0x10(%rbp),%rax
    10005f65:	48 01 c2             	add    %rax,%rdx
    10005f68:	48 8b 45 e8          	mov    -0x18(%rbp),%rax
    10005f6c:	48 8d 48 ff          	lea    -0x1(%rax),%rcx
    10005f70:	48 8b 45 f8          	mov    -0x8(%rbp),%rax
    10005f74:	48 8d 3c 01          	lea    (%rcx,%rax,1),%rdi
    10005f78:	48 8b 45 e8          	mov    -0x18(%rbp),%rax
    10005f7c:	48 89 c1             	mov    %rax,%rcx
    10005f7f:	48 89 d6             	mov    %rdx,%rsi
    10005f82:	fd                   	std    
    10005f83:	f3 a4                	rep movsb %ds:(%rsi),%es:(%rdi)
    10005f85:	fc                   	cld    
    10005f86:	89 f8                	mov    %edi,%eax
    10005f88:	89 f2                	mov    %esi,%edx
    10005f8a:	89 4d c8             	mov    %ecx,-0x38(%rbp)
    10005f8d:	89 55 c4             	mov    %edx,-0x3c(%rbp)
    10005f90:	89 45 c0             	mov    %eax,-0x40(%rbp)
    10005f93:	48 8b 45 f8          	mov    -0x8(%rbp),%rax
    10005f97:	5d                   	pop    %rbp
    10005f98:	c3                   	retq   

0000000010005f99 <memcpy>:
    10005f99:	55                   	push   %rbp
    10005f9a:	48 89 e5             	mov    %rsp,%rbp
    10005f9d:	48 89 7d c8          	mov    %rdi,-0x38(%rbp)
    10005fa1:	48 89 75 c0          	mov    %rsi,-0x40(%rbp)
    10005fa5:	48 89 55 b8          	mov    %rdx,-0x48(%rbp)
    10005fa9:	48 8b 45 c8          	mov    -0x38(%rbp),%rax
    10005fad:	48 89 45 f8          	mov    %rax,-0x8(%rbp)
    10005fb1:	48 8b 45 c0          	mov    -0x40(%rbp),%rax
    10005fb5:	48 89 45 f0          	mov    %rax,-0x10(%rbp)
    10005fb9:	48 8b 45 b8          	mov    -0x48(%rbp),%rax
    10005fbd:	48 89 45 d8          	mov    %rax,-0x28(%rbp)
    10005fc1:	48 8b 45 d8          	mov    -0x28(%rbp),%rax
    10005fc5:	48 c1 e8 02          	shr    $0x2,%rax
    10005fc9:	49 89 c0             	mov    %rax,%r8
    10005fcc:	48 8b 45 f8          	mov    -0x8(%rbp),%rax
    10005fd0:	48 8b 55 f0          	mov    -0x10(%rbp),%rdx
    10005fd4:	48 89 c7             	mov    %rax,%rdi
    10005fd7:	48 89 d6             	mov    %rdx,%rsi
    10005fda:	4c 89 c1             	mov    %r8,%rcx
    10005fdd:	f3 a5                	rep movsl %ds:(%rsi),%es:(%rdi)
    10005fdf:	8b 4d d8             	mov    -0x28(%rbp),%ecx
    10005fe2:	83 e1 03             	and    $0x3,%ecx
    10005fe5:	74 02                	je     10005fe9 <memcpy+0x50>
    10005fe7:	f3 a4                	rep movsb %ds:(%rsi),%es:(%rdi)
    10005fe9:	89 f0                	mov    %esi,%eax
    10005feb:	89 fa                	mov    %edi,%edx
    10005fed:	89 4d ec             	mov    %ecx,-0x14(%rbp)
    10005ff0:	89 55 e8             	mov    %edx,-0x18(%rbp)
    10005ff3:	89 45 e4             	mov    %eax,-0x1c(%rbp)
    10005ff6:	48 8b 45 f8          	mov    -0x8(%rbp),%rax
    10005ffa:	90                   	nop
    10005ffb:	5d                   	pop    %rbp
    10005ffc:	c3                   	retq   

0000000010005ffd <memcmp>:
    10005ffd:	55                   	push   %rbp
    10005ffe:	48 89 e5             	mov    %rsp,%rbp
    10006001:	48 89 7d e8          	mov    %rdi,-0x18(%rbp)
    10006005:	48 89 75 e0          	mov    %rsi,-0x20(%rbp)
    10006009:	48 89 55 d8          	mov    %rdx,-0x28(%rbp)
    1000600d:	48 8b 45 e8          	mov    -0x18(%rbp),%rax
    10006011:	48 89 45 f8          	mov    %rax,-0x8(%rbp)
    10006015:	48 8b 45 e0          	mov    -0x20(%rbp),%rax
    10006019:	48 89 45 f0          	mov    %rax,-0x10(%rbp)
    1000601d:	eb 36                	jmp    10006055 <memcmp+0x58>
    1000601f:	48 8b 45 f8          	mov    -0x8(%rbp),%rax
    10006023:	0f b6 10             	movzbl (%rax),%edx
    10006026:	48 8b 45 f0          	mov    -0x10(%rbp),%rax
    1000602a:	0f b6 00             	movzbl (%rax),%eax
    1000602d:	38 c2                	cmp    %al,%dl
    1000602f:	74 1a                	je     1000604b <memcmp+0x4e>
    10006031:	48 8b 45 f8          	mov    -0x8(%rbp),%rax
    10006035:	0f b6 00             	movzbl (%rax),%eax
    10006038:	0f b6 d0             	movzbl %al,%edx
    1000603b:	48 8b 45 f0          	mov    -0x10(%rbp),%rax
    1000603f:	0f b6 00             	movzbl (%rax),%eax
    10006042:	0f b6 c0             	movzbl %al,%eax
    10006045:	29 c2                	sub    %eax,%edx
    10006047:	89 d0                	mov    %edx,%eax
    10006049:	eb 20                	jmp    1000606b <memcmp+0x6e>
    1000604b:	48 83 45 f8 01       	addq   $0x1,-0x8(%rbp)
    10006050:	48 83 45 f0 01       	addq   $0x1,-0x10(%rbp)
    10006055:	48 8b 45 d8          	mov    -0x28(%rbp),%rax
    10006059:	48 8d 50 ff          	lea    -0x1(%rax),%rdx
    1000605d:	48 89 55 d8          	mov    %rdx,-0x28(%rbp)
    10006061:	48 85 c0             	test   %rax,%rax
    10006064:	75 b9                	jne    1000601f <memcmp+0x22>
    10006066:	b8 00 00 00 00       	mov    $0x0,%eax
    1000606b:	5d                   	pop    %rbp
    1000606c:	c3                   	retq   

000000001000606d <lstat>:
    1000606d:	55                   	push   %rbp
    1000606e:	48 89 e5             	mov    %rsp,%rbp
    10006071:	48 83 ec 10          	sub    $0x10,%rsp
    10006075:	48 89 7d f8          	mov    %rdi,-0x8(%rbp)
    10006079:	48 89 75 f0          	mov    %rsi,-0x10(%rbp)
    1000607d:	48 8b 55 f0          	mov    -0x10(%rbp),%rdx
    10006081:	48 8b 45 f8          	mov    -0x8(%rbp),%rax
    10006085:	48 89 d6             	mov    %rdx,%rsi
    10006088:	48 89 c7             	mov    %rax,%rdi
    1000608b:	e8 6c e7 ff ff       	callq  100047fc <sysfile_linux_lstat>
    10006090:	c9                   	leaveq 
    10006091:	c3                   	retq   

0000000010006092 <__clone>:
    10006092:	55                   	push   %rbp
    10006093:	48 89 e5             	mov    %rsp,%rbp
    10006096:	48 c7 c0 05 00 00 00 	mov    $0x5,%rax
    1000609d:	cd 80                	int    $0x80
    1000609f:	48 83 f8 00          	cmp    $0x0,%rax
    100060a3:	74 02                	je     100060a7 <__clone+0x15>
    100060a5:	c9                   	leaveq 
    100060a6:	c3                   	retq   
    100060a7:	48 89 cf             	mov    %rcx,%rdi
    100060aa:	ff d2                	callq  *%rdx
    100060ac:	48 89 c7             	mov    %rax,%rdi
    100060af:	48 c7 c0 09 00 00 00 	mov    $0x9,%rax
    100060b6:	cd 80                	int    $0x80

00000000100060b8 <spin>:
    100060b8:	eb fe                	jmp    100060b8 <spin>

00000000100060ba <syscall>:
    100060ba:	55                   	push   %rbp
    100060bb:	48 89 e5             	mov    %rsp,%rbp
    100060be:	53                   	push   %rbx
    100060bf:	48 81 ec b0 00 00 00 	sub    $0xb0,%rsp
    100060c6:	89 bd dc fe ff ff    	mov    %edi,-0x124(%rbp)
    100060cc:	48 89 b5 48 ff ff ff 	mov    %rsi,-0xb8(%rbp)
    100060d3:	48 89 95 50 ff ff ff 	mov    %rdx,-0xb0(%rbp)
    100060da:	48 89 8d 58 ff ff ff 	mov    %rcx,-0xa8(%rbp)
    100060e1:	4c 89 85 60 ff ff ff 	mov    %r8,-0xa0(%rbp)
    100060e8:	4c 89 8d 68 ff ff ff 	mov    %r9,-0x98(%rbp)
    100060ef:	84 c0                	test   %al,%al
    100060f1:	74 23                	je     10006116 <syscall+0x5c>
    100060f3:	0f 29 85 70 ff ff ff 	movaps %xmm0,-0x90(%rbp)
    100060fa:	0f 29 4d 80          	movaps %xmm1,-0x80(%rbp)
    100060fe:	0f 29 55 90          	movaps %xmm2,-0x70(%rbp)
    10006102:	0f 29 5d a0          	movaps %xmm3,-0x60(%rbp)
    10006106:	0f 29 65 b0          	movaps %xmm4,-0x50(%rbp)
    1000610a:	0f 29 6d c0          	movaps %xmm5,-0x40(%rbp)
    1000610e:	0f 29 75 d0          	movaps %xmm6,-0x30(%rbp)
    10006112:	0f 29 7d e0          	movaps %xmm7,-0x20(%rbp)
    10006116:	c7 85 18 ff ff ff 08 	movl   $0x8,-0xe8(%rbp)
    1000611d:	00 00 00 
    10006120:	c7 85 1c ff ff ff 30 	movl   $0x30,-0xe4(%rbp)
    10006127:	00 00 00 
    1000612a:	48 8d 45 10          	lea    0x10(%rbp),%rax
    1000612e:	48 89 85 20 ff ff ff 	mov    %rax,-0xe0(%rbp)
    10006135:	48 8d 85 40 ff ff ff 	lea    -0xc0(%rbp),%rax
    1000613c:	48 89 85 28 ff ff ff 	mov    %rax,-0xd8(%rbp)
    10006143:	c7 85 3c ff ff ff 00 	movl   $0x0,-0xc4(%rbp)
    1000614a:	00 00 00 
    1000614d:	eb 5a                	jmp    100061a9 <syscall+0xef>
    1000614f:	8b 85 18 ff ff ff    	mov    -0xe8(%rbp),%eax
    10006155:	83 f8 2f             	cmp    $0x2f,%eax
    10006158:	77 23                	ja     1000617d <syscall+0xc3>
    1000615a:	48 8b 85 28 ff ff ff 	mov    -0xd8(%rbp),%rax
    10006161:	8b 95 18 ff ff ff    	mov    -0xe8(%rbp),%edx
    10006167:	89 d2                	mov    %edx,%edx
    10006169:	48 01 d0             	add    %rdx,%rax
    1000616c:	8b 95 18 ff ff ff    	mov    -0xe8(%rbp),%edx
    10006172:	83 c2 08             	add    $0x8,%edx
    10006175:	89 95 18 ff ff ff    	mov    %edx,-0xe8(%rbp)
    1000617b:	eb 12                	jmp    1000618f <syscall+0xd5>
    1000617d:	48 8b 85 20 ff ff ff 	mov    -0xe0(%rbp),%rax
    10006184:	48 8d 50 08          	lea    0x8(%rax),%rdx
    10006188:	48 89 95 20 ff ff ff 	mov    %rdx,-0xe0(%rbp)
    1000618f:	48 8b 10             	mov    (%rax),%rdx
    10006192:	8b 85 3c ff ff ff    	mov    -0xc4(%rbp),%eax
    10006198:	48 98                	cltq   
    1000619a:	48 89 94 c5 e0 fe ff 	mov    %rdx,-0x120(%rbp,%rax,8)
    100061a1:	ff 
    100061a2:	83 85 3c ff ff ff 01 	addl   $0x1,-0xc4(%rbp)
    100061a9:	83 bd 3c ff ff ff 05 	cmpl   $0x5,-0xc4(%rbp)
    100061b0:	7e 9d                	jle    1000614f <syscall+0x95>
    100061b2:	8b 85 dc fe ff ff    	mov    -0x124(%rbp),%eax
    100061b8:	48 8d 95 e0 fe ff ff 	lea    -0x120(%rbp),%rdx
    100061bf:	48 89 d3             	mov    %rdx,%rbx
    100061c2:	48 8b 3b             	mov    (%rbx),%rdi
    100061c5:	48 8b 73 08          	mov    0x8(%rbx),%rsi
    100061c9:	48 8b 53 10          	mov    0x10(%rbx),%rdx
    100061cd:	48 8b 4b 18          	mov    0x18(%rbx),%rcx
    100061d1:	4c 8b 43 20          	mov    0x20(%rbx),%r8
    100061d5:	4c 8b 4b 28          	mov    0x28(%rbx),%r9
    100061d9:	cd 80                	int    $0x80
    100061db:	48 89 85 30 ff ff ff 	mov    %rax,-0xd0(%rbp)
    100061e2:	48 8b 85 30 ff ff ff 	mov    -0xd0(%rbp),%rax
    100061e9:	48 81 c4 b0 00 00 00 	add    $0xb0,%rsp
    100061f0:	5b                   	pop    %rbx
    100061f1:	5d                   	pop    %rbp
    100061f2:	c3                   	retq   

00000000100061f3 <__panic>:
    100061f3:	55                   	push   %rbp
    100061f4:	48 89 e5             	mov    %rsp,%rbp
    100061f7:	48 81 ec f0 00 00 00 	sub    $0xf0,%rsp
    100061fe:	48 89 bd 28 ff ff ff 	mov    %rdi,-0xd8(%rbp)
    10006205:	89 b5 24 ff ff ff    	mov    %esi,-0xdc(%rbp)
    1000620b:	48 89 95 18 ff ff ff 	mov    %rdx,-0xe8(%rbp)
    10006212:	48 89 8d 68 ff ff ff 	mov    %rcx,-0x98(%rbp)
    10006219:	4c 89 85 70 ff ff ff 	mov    %r8,-0x90(%rbp)
    10006220:	4c 89 8d 78 ff ff ff 	mov    %r9,-0x88(%rbp)
    10006227:	84 c0                	test   %al,%al
    10006229:	74 20                	je     1000624b <__panic+0x58>
    1000622b:	0f 29 45 80          	movaps %xmm0,-0x80(%rbp)
    1000622f:	0f 29 4d 90          	movaps %xmm1,-0x70(%rbp)
    10006233:	0f 29 55 a0          	movaps %xmm2,-0x60(%rbp)
    10006237:	0f 29 5d b0          	movaps %xmm3,-0x50(%rbp)
    1000623b:	0f 29 65 c0          	movaps %xmm4,-0x40(%rbp)
    1000623f:	0f 29 6d d0          	movaps %xmm5,-0x30(%rbp)
    10006243:	0f 29 75 e0          	movaps %xmm6,-0x20(%rbp)
    10006247:	0f 29 7d f0          	movaps %xmm7,-0x10(%rbp)
    1000624b:	c7 85 38 ff ff ff 18 	movl   $0x18,-0xc8(%rbp)
    10006252:	00 00 00 
    10006255:	c7 85 3c ff ff ff 30 	movl   $0x30,-0xc4(%rbp)
    1000625c:	00 00 00 
    1000625f:	48 8d 45 10          	lea    0x10(%rbp),%rax
    10006263:	48 89 85 40 ff ff ff 	mov    %rax,-0xc0(%rbp)
    1000626a:	48 8d 85 50 ff ff ff 	lea    -0xb0(%rbp),%rax
    10006271:	48 89 85 48 ff ff ff 	mov    %rax,-0xb8(%rbp)
    10006278:	8b 95 24 ff ff ff    	mov    -0xdc(%rbp),%edx
    1000627e:	48 8b 85 28 ff ff ff 	mov    -0xd8(%rbp),%rax
    10006285:	48 89 c6             	mov    %rax,%rsi
    10006288:	bf 58 77 00 10       	mov    $0x10007758,%edi
    1000628d:	b8 00 00 00 00       	mov    $0x0,%eax
    10006292:	e8 41 d9 ff ff       	callq  10003bd8 <cprintf>
    10006297:	48 8d 95 38 ff ff ff 	lea    -0xc8(%rbp),%rdx
    1000629e:	48 8b 85 18 ff ff ff 	mov    -0xe8(%rbp),%rax
    100062a5:	48 89 d6             	mov    %rdx,%rsi
    100062a8:	48 89 c7             	mov    %rax,%rdi
    100062ab:	e8 e8 d8 ff ff       	callq  10003b98 <vcprintf>
    100062b0:	bf 72 77 00 10       	mov    $0x10007772,%edi
    100062b5:	b8 00 00 00 00       	mov    $0x0,%eax
    100062ba:	e8 19 d9 ff ff       	callq  10003bd8 <cprintf>
    100062bf:	bf dc ff ff ff       	mov    $0xffffffdc,%edi
    100062c4:	e8 4c e6 ff ff       	callq  10004915 <exit>

00000000100062c9 <__warn>:
    100062c9:	55                   	push   %rbp
    100062ca:	48 89 e5             	mov    %rsp,%rbp
    100062cd:	48 81 ec f0 00 00 00 	sub    $0xf0,%rsp
    100062d4:	48 89 bd 28 ff ff ff 	mov    %rdi,-0xd8(%rbp)
    100062db:	89 b5 24 ff ff ff    	mov    %esi,-0xdc(%rbp)
    100062e1:	48 89 95 18 ff ff ff 	mov    %rdx,-0xe8(%rbp)
    100062e8:	48 89 8d 68 ff ff ff 	mov    %rcx,-0x98(%rbp)
    100062ef:	4c 89 85 70 ff ff ff 	mov    %r8,-0x90(%rbp)
    100062f6:	4c 89 8d 78 ff ff ff 	mov    %r9,-0x88(%rbp)
    100062fd:	84 c0                	test   %al,%al
    100062ff:	74 20                	je     10006321 <__warn+0x58>
    10006301:	0f 29 45 80          	movaps %xmm0,-0x80(%rbp)
    10006305:	0f 29 4d 90          	movaps %xmm1,-0x70(%rbp)
    10006309:	0f 29 55 a0          	movaps %xmm2,-0x60(%rbp)
    1000630d:	0f 29 5d b0          	movaps %xmm3,-0x50(%rbp)
    10006311:	0f 29 65 c0          	movaps %xmm4,-0x40(%rbp)
    10006315:	0f 29 6d d0          	movaps %xmm5,-0x30(%rbp)
    10006319:	0f 29 75 e0          	movaps %xmm6,-0x20(%rbp)
    1000631d:	0f 29 7d f0          	movaps %xmm7,-0x10(%rbp)
    10006321:	c7 85 38 ff ff ff 18 	movl   $0x18,-0xc8(%rbp)
    10006328:	00 00 00 
    1000632b:	c7 85 3c ff ff ff 30 	movl   $0x30,-0xc4(%rbp)
    10006332:	00 00 00 
    10006335:	48 8d 45 10          	lea    0x10(%rbp),%rax
    10006339:	48 89 85 40 ff ff ff 	mov    %rax,-0xc0(%rbp)
    10006340:	48 8d 85 50 ff ff ff 	lea    -0xb0(%rbp),%rax
    10006347:	48 89 85 48 ff ff ff 	mov    %rax,-0xb8(%rbp)
    1000634e:	8b 95 24 ff ff ff    	mov    -0xdc(%rbp),%edx
    10006354:	48 8b 85 28 ff ff ff 	mov    -0xd8(%rbp),%rax
    1000635b:	48 89 c6             	mov    %rax,%rsi
    1000635e:	bf 74 77 00 10       	mov    $0x10007774,%edi
    10006363:	b8 00 00 00 00       	mov    $0x0,%eax
    10006368:	e8 6b d8 ff ff       	callq  10003bd8 <cprintf>
    1000636d:	48 8d 95 38 ff ff ff 	lea    -0xc8(%rbp),%rdx
    10006374:	48 8b 85 18 ff ff ff 	mov    -0xe8(%rbp),%rax
    1000637b:	48 89 d6             	mov    %rdx,%rsi
    1000637e:	48 89 c7             	mov    %rax,%rdi
    10006381:	e8 12 d8 ff ff       	callq  10003b98 <vcprintf>
    10006386:	bf 72 77 00 10       	mov    $0x10007772,%edi
    1000638b:	b8 00 00 00 00       	mov    $0x0,%eax
    10006390:	e8 43 d8 ff ff       	callq  10003bd8 <cprintf>
    10006395:	90                   	nop
    10006396:	c9                   	leaveq 
    10006397:	c3                   	retq   
